
freertos.elf:     file format elf32-avr

Sections:
Idx Name          Size      VMA       LMA       File off  Algn
  0 .data         00000038  00800100  00002dfe  00002e92  2**0
                  CONTENTS, ALLOC, LOAD, DATA
  1 .text         00002dfe  00000000  00000000  00000094  2**1
                  CONTENTS, ALLOC, LOAD, READONLY, CODE
  2 .bss          0000068e  00800138  00800138  00002eca  2**0
                  ALLOC
  3 .stab         00007e24  00000000  00000000  00002ecc  2**2
                  CONTENTS, READONLY, DEBUGGING
  4 .stabstr      000046c3  00000000  00000000  0000acf0  2**0
                  CONTENTS, READONLY, DEBUGGING
  5 .comment      00000011  00000000  00000000  0000f3b3  2**0
                  CONTENTS, READONLY
  6 .note.gnu.avr.deviceinfo 00000040  00000000  00000000  0000f3c4  2**2
                  CONTENTS, READONLY
  7 .debug_info   000005f4  00000000  00000000  0000f404  2**0
                  CONTENTS, READONLY, DEBUGGING
  8 .debug_abbrev 000005a2  00000000  00000000  0000f9f8  2**0
                  CONTENTS, READONLY, DEBUGGING
  9 .debug_line   0000001a  00000000  00000000  0000ff9a  2**0
                  CONTENTS, READONLY, DEBUGGING
 10 .debug_str    00000208  00000000  00000000  0000ffb4  2**0
                  CONTENTS, READONLY, DEBUGGING

Disassembly of section .text:

00000000 <__vectors>:
       0:	0c 94 34 00 	jmp	0x68	; 0x68 <__ctors_end>
       4:	0c 94 51 00 	jmp	0xa2	; 0xa2 <__bad_interrupt>
       8:	0c 94 51 00 	jmp	0xa2	; 0xa2 <__bad_interrupt>
       c:	0c 94 51 00 	jmp	0xa2	; 0xa2 <__bad_interrupt>
      10:	0c 94 51 00 	jmp	0xa2	; 0xa2 <__bad_interrupt>
      14:	0c 94 51 00 	jmp	0xa2	; 0xa2 <__bad_interrupt>
      18:	0c 94 51 00 	jmp	0xa2	; 0xa2 <__bad_interrupt>
      1c:	0c 94 51 00 	jmp	0xa2	; 0xa2 <__bad_interrupt>
      20:	0c 94 51 00 	jmp	0xa2	; 0xa2 <__bad_interrupt>
      24:	0c 94 51 00 	jmp	0xa2	; 0xa2 <__bad_interrupt>
      28:	0c 94 51 00 	jmp	0xa2	; 0xa2 <__bad_interrupt>
      2c:	0c 94 89 13 	jmp	0x2712	; 0x2712 <__vector_11>
      30:	0c 94 51 00 	jmp	0xa2	; 0xa2 <__bad_interrupt>
      34:	0c 94 51 00 	jmp	0xa2	; 0xa2 <__bad_interrupt>
      38:	0c 94 51 00 	jmp	0xa2	; 0xa2 <__bad_interrupt>
      3c:	0c 94 51 00 	jmp	0xa2	; 0xa2 <__bad_interrupt>
      40:	0c 94 51 00 	jmp	0xa2	; 0xa2 <__bad_interrupt>
      44:	0c 94 51 00 	jmp	0xa2	; 0xa2 <__bad_interrupt>
      48:	0c 94 0e 01 	jmp	0x21c	; 0x21c <__vector_18>
      4c:	0c 94 da 00 	jmp	0x1b4	; 0x1b4 <__vector_19>
      50:	0c 94 51 00 	jmp	0xa2	; 0xa2 <__bad_interrupt>
      54:	0c 94 b0 00 	jmp	0x160	; 0x160 <__vector_21>
      58:	0c 94 51 00 	jmp	0xa2	; 0xa2 <__bad_interrupt>
      5c:	0c 94 51 00 	jmp	0xa2	; 0xa2 <__bad_interrupt>
      60:	0c 94 51 00 	jmp	0xa2	; 0xa2 <__bad_interrupt>
      64:	0c 94 51 00 	jmp	0xa2	; 0xa2 <__bad_interrupt>

00000068 <__ctors_end>:
      68:	11 24       	eor	r1, r1
      6a:	1f be       	out	0x3f, r1	; 63
      6c:	cf ef       	ldi	r28, 0xFF	; 255
      6e:	d8 e0       	ldi	r29, 0x08	; 8
      70:	de bf       	out	0x3e, r29	; 62
      72:	cd bf       	out	0x3d, r28	; 61

00000074 <__do_copy_data>:
      74:	11 e0       	ldi	r17, 0x01	; 1
      76:	a0 e0       	ldi	r26, 0x00	; 0
      78:	b1 e0       	ldi	r27, 0x01	; 1
      7a:	ee ef       	ldi	r30, 0xFE	; 254
      7c:	fd e2       	ldi	r31, 0x2D	; 45
      7e:	02 c0       	rjmp	.+4      	; 0x84 <__do_copy_data+0x10>
      80:	05 90       	lpm	r0, Z+
      82:	0d 92       	st	X+, r0
      84:	a8 33       	cpi	r26, 0x38	; 56
      86:	b1 07       	cpc	r27, r17
      88:	d9 f7       	brne	.-10     	; 0x80 <__do_copy_data+0xc>

0000008a <__do_clear_bss>:
      8a:	27 e0       	ldi	r18, 0x07	; 7
      8c:	a8 e3       	ldi	r26, 0x38	; 56
      8e:	b1 e0       	ldi	r27, 0x01	; 1
      90:	01 c0       	rjmp	.+2      	; 0x94 <.do_clear_bss_start>

00000092 <.do_clear_bss_loop>:
      92:	1d 92       	st	X+, r1

00000094 <.do_clear_bss_start>:
      94:	a6 3c       	cpi	r26, 0xC6	; 198
      96:	b2 07       	cpc	r27, r18
      98:	e1 f7       	brne	.-8      	; 0x92 <.do_clear_bss_loop>
      9a:	0e 94 b7 13 	call	0x276e	; 0x276e <main>
      9e:	0c 94 fd 16 	jmp	0x2dfa	; 0x2dfa <_exit>

000000a2 <__bad_interrupt>:
      a2:	0c 94 00 00 	jmp	0	; 0x0 <__vectors>

000000a6 <vApplicationIdleHook>:

    return 0;
}

void vApplicationIdleHook(void)
{
      a6:	08 95       	ret

000000a8 <adc_init>:
        vTaskDelay(2500 / portTICK_PERIOD_MS);
    }
}

void adc_init() {
    ADMUX = _BV(REFS0);  //referencja AVcc, wejście ADC0
      a8:	80 e4       	ldi	r24, 0x40	; 64
      aa:	80 93 7c 00 	sts	0x007C, r24	; 0x80007c <__DATA_REGION_ORIGIN__+0x1c>
    DIDR0 = _BV(ADC0D) | _BV(ADC1D) | _BV(ADC2D); //wyłącz wejście cyfrowe na ADC0-ADC2
      ae:	87 e0       	ldi	r24, 0x07	; 7
      b0:	80 93 7e 00 	sts	0x007E, r24	; 0x80007e <__DATA_REGION_ORIGIN__+0x1e>
    ADCSRA = _BV(ADPS0) | _BV(ADPS1) | _BV(ADPS2); //presklaer 128
      b4:	ea e7       	ldi	r30, 0x7A	; 122
      b6:	f0 e0       	ldi	r31, 0x00	; 0
      b8:	80 83       	st	Z, r24
    ADCSRA |= _BV(ADEN) | _BV(ADIE); //ADIE - odpala przerwania, ADEN włącza adc
      ba:	80 81       	ld	r24, Z
      bc:	88 68       	ori	r24, 0x88	; 136
      be:	80 83       	st	Z, r24
      c0:	08 95       	ret

000000c2 <readADC>:
}

uint16_t readADC(uint8_t mux) {
    ADMUX = _BV(REFS0) | mux;
      c2:	80 64       	ori	r24, 0x40	; 64
      c4:	80 93 7c 00 	sts	0x007C, r24	; 0x80007c <__DATA_REGION_ORIGIN__+0x1c>
    ADCSRA |= _BV(ADSC);
      c8:	ea e7       	ldi	r30, 0x7A	; 122
      ca:	f0 e0       	ldi	r31, 0x00	; 0
      cc:	80 81       	ld	r24, Z
      ce:	80 64       	ori	r24, 0x40	; 64
      d0:	80 83       	st	Z, r24
    xSemaphoreTake(adc_mutex, portMAX_DELAY); //zamiast while
      d2:	6f ef       	ldi	r22, 0xFF	; 255
      d4:	7f ef       	ldi	r23, 0xFF	; 255
      d6:	80 91 be 07 	lds	r24, 0x07BE	; 0x8007be <adc_mutex>
      da:	90 91 bf 07 	lds	r25, 0x07BF	; 0x8007bf <adc_mutex+0x1>
      de:	0e 94 f5 0c 	call	0x19ea	; 0x19ea <xQueueSemaphoreTake>
    uint16_t result = ADC;
      e2:	80 91 78 00 	lds	r24, 0x0078	; 0x800078 <__DATA_REGION_ORIGIN__+0x18>
      e6:	90 91 79 00 	lds	r25, 0x0079	; 0x800079 <__DATA_REGION_ORIGIN__+0x19>
    return result;
}
      ea:	08 95       	ret

000000ec <vSerial>:
}


static void vSerial(void* pvParameters)
{
    uint8_t id = (uint8_t)pvParameters;
      ec:	f8 2e       	mov	r15, r24
      ee:	ec 01       	movw	r28, r24
      f0:	dd 27       	eor	r29, r29
    vTaskDelay((1000*id) / portTICK_PERIOD_MS);
      f2:	88 ee       	ldi	r24, 0xE8	; 232
      f4:	93 e0       	ldi	r25, 0x03	; 3
      f6:	9c 01       	movw	r18, r24
      f8:	c2 9f       	mul	r28, r18
      fa:	c0 01       	movw	r24, r0
      fc:	c3 9f       	mul	r28, r19
      fe:	90 0d       	add	r25, r0
     100:	d2 9f       	mul	r29, r18
     102:	90 0d       	add	r25, r0
     104:	11 24       	eor	r1, r1
     106:	0e 94 75 05 	call	0xaea	; 0xaea <vTaskDelay>

    while (1) {
        xSemaphoreTake(vserial_mutex, portMAX_DELAY);
        printf("Urzadzenie nr %"PRIu8":%d\r\n", id, readADC(id));   
     10a:	0d e1       	ldi	r16, 0x1D	; 29
     10c:	11 e0       	ldi	r17, 0x01	; 1
{
    uint8_t id = (uint8_t)pvParameters;
    vTaskDelay((1000*id) / portTICK_PERIOD_MS);

    while (1) {
        xSemaphoreTake(vserial_mutex, portMAX_DELAY);
     10e:	6f ef       	ldi	r22, 0xFF	; 255
     110:	7f ef       	ldi	r23, 0xFF	; 255
     112:	80 91 bc 07 	lds	r24, 0x07BC	; 0x8007bc <vserial_mutex>
     116:	90 91 bd 07 	lds	r25, 0x07BD	; 0x8007bd <vserial_mutex+0x1>
     11a:	0e 94 f5 0c 	call	0x19ea	; 0x19ea <xQueueSemaphoreTake>
        printf("Urzadzenie nr %"PRIu8":%d\r\n", id, readADC(id));   
     11e:	8f 2d       	mov	r24, r15
     120:	0e 94 61 00 	call	0xc2	; 0xc2 <readADC>
     124:	9f 93       	push	r25
     126:	8f 93       	push	r24
     128:	df 93       	push	r29
     12a:	cf 93       	push	r28
     12c:	1f 93       	push	r17
     12e:	0f 93       	push	r16
     130:	0e 94 1f 14 	call	0x283e	; 0x283e <printf>
        xSemaphoreGive(vserial_mutex);
     134:	20 e0       	ldi	r18, 0x00	; 0
     136:	40 e0       	ldi	r20, 0x00	; 0
     138:	50 e0       	ldi	r21, 0x00	; 0
     13a:	60 e0       	ldi	r22, 0x00	; 0
     13c:	70 e0       	ldi	r23, 0x00	; 0
     13e:	80 91 bc 07 	lds	r24, 0x07BC	; 0x8007bc <vserial_mutex>
     142:	90 91 bd 07 	lds	r25, 0x07BD	; 0x8007bd <vserial_mutex+0x1>
     146:	0e 94 61 0b 	call	0x16c2	; 0x16c2 <xQueueGenericSend>
        vTaskDelay(2500 / portTICK_PERIOD_MS);
     14a:	84 ec       	ldi	r24, 0xC4	; 196
     14c:	99 e0       	ldi	r25, 0x09	; 9
     14e:	0e 94 75 05 	call	0xaea	; 0xaea <vTaskDelay>
     152:	0f 90       	pop	r0
     154:	0f 90       	pop	r0
     156:	0f 90       	pop	r0
     158:	0f 90       	pop	r0
     15a:	0f 90       	pop	r0
     15c:	0f 90       	pop	r0
     15e:	d7 cf       	rjmp	.-82     	; 0x10e <vSerial+0x22>

00000160 <__vector_21>:
    xSemaphoreTake(adc_mutex, portMAX_DELAY); //zamiast while
    uint16_t result = ADC;
    return result;
}

ISR(ADC_vect) {
     160:	1f 92       	push	r1
     162:	0f 92       	push	r0
     164:	0f b6       	in	r0, 0x3f	; 63
     166:	0f 92       	push	r0
     168:	11 24       	eor	r1, r1
     16a:	2f 93       	push	r18
     16c:	3f 93       	push	r19
     16e:	4f 93       	push	r20
     170:	5f 93       	push	r21
     172:	6f 93       	push	r22
     174:	7f 93       	push	r23
     176:	8f 93       	push	r24
     178:	9f 93       	push	r25
     17a:	af 93       	push	r26
     17c:	bf 93       	push	r27
     17e:	ef 93       	push	r30
     180:	ff 93       	push	r31
    xSemaphoreGiveFromISR(adc_mutex, NULL);
     182:	60 e0       	ldi	r22, 0x00	; 0
     184:	70 e0       	ldi	r23, 0x00	; 0
     186:	80 91 be 07 	lds	r24, 0x07BE	; 0x8007be <adc_mutex>
     18a:	90 91 bf 07 	lds	r25, 0x07BF	; 0x8007bf <adc_mutex+0x1>
     18e:	0e 94 40 0c 	call	0x1880	; 0x1880 <xQueueGiveFromISR>
}
     192:	ff 91       	pop	r31
     194:	ef 91       	pop	r30
     196:	bf 91       	pop	r27
     198:	af 91       	pop	r26
     19a:	9f 91       	pop	r25
     19c:	8f 91       	pop	r24
     19e:	7f 91       	pop	r23
     1a0:	6f 91       	pop	r22
     1a2:	5f 91       	pop	r21
     1a4:	4f 91       	pop	r20
     1a6:	3f 91       	pop	r19
     1a8:	2f 91       	pop	r18
     1aa:	0f 90       	pop	r0
     1ac:	0f be       	out	0x3f, r0	; 63
     1ae:	0f 90       	pop	r0
     1b0:	1f 90       	pop	r1
     1b2:	18 95       	reti

000001b4 <__vector_19>:

ISR(USART_UDRE_vect) {
     1b4:	1f 92       	push	r1
     1b6:	0f 92       	push	r0
     1b8:	0f b6       	in	r0, 0x3f	; 63
     1ba:	0f 92       	push	r0
     1bc:	11 24       	eor	r1, r1
     1be:	2f 93       	push	r18
     1c0:	3f 93       	push	r19
     1c2:	4f 93       	push	r20
     1c4:	5f 93       	push	r21
     1c6:	6f 93       	push	r22
     1c8:	7f 93       	push	r23
     1ca:	8f 93       	push	r24
     1cc:	9f 93       	push	r25
     1ce:	af 93       	push	r26
     1d0:	bf 93       	push	r27
     1d2:	ef 93       	push	r30
     1d4:	ff 93       	push	r31
    if (xQueueIsQueueEmptyFromISR(bufor_out) == pdFALSE)
     1d6:	80 91 b8 07 	lds	r24, 0x07B8	; 0x8007b8 <bufor_out>
     1da:	90 91 b9 07 	lds	r25, 0x07B9	; 0x8007b9 <bufor_out+0x1>
     1de:	0e 94 a6 0e 	call	0x1d4c	; 0x1d4c <xQueueIsQueueEmptyFromISR>
     1e2:	81 11       	cpse	r24, r1
     1e4:	0a c0       	rjmp	.+20     	; 0x1fa <__vector_19+0x46>
        xQueueReceiveFromISR(bufor_out, (void*)&UDR0, NULL);
     1e6:	40 e0       	ldi	r20, 0x00	; 0
     1e8:	50 e0       	ldi	r21, 0x00	; 0
     1ea:	66 ec       	ldi	r22, 0xC6	; 198
     1ec:	70 e0       	ldi	r23, 0x00	; 0
     1ee:	80 91 b8 07 	lds	r24, 0x07B8	; 0x8007b8 <bufor_out>
     1f2:	90 91 b9 07 	lds	r25, 0x07B9	; 0x8007b9 <bufor_out+0x1>
     1f6:	0e 94 49 0e 	call	0x1c92	; 0x1c92 <xQueueReceiveFromISR>
}
     1fa:	ff 91       	pop	r31
     1fc:	ef 91       	pop	r30
     1fe:	bf 91       	pop	r27
     200:	af 91       	pop	r26
     202:	9f 91       	pop	r25
     204:	8f 91       	pop	r24
     206:	7f 91       	pop	r23
     208:	6f 91       	pop	r22
     20a:	5f 91       	pop	r21
     20c:	4f 91       	pop	r20
     20e:	3f 91       	pop	r19
     210:	2f 91       	pop	r18
     212:	0f 90       	pop	r0
     214:	0f be       	out	0x3f, r0	; 63
     216:	0f 90       	pop	r0
     218:	1f 90       	pop	r1
     21a:	18 95       	reti

0000021c <__vector_18>:

ISR(USART_RX_vect) {
     21c:	1f 92       	push	r1
     21e:	0f 92       	push	r0
     220:	0f b6       	in	r0, 0x3f	; 63
     222:	0f 92       	push	r0
     224:	11 24       	eor	r1, r1
     226:	2f 93       	push	r18
     228:	3f 93       	push	r19
     22a:	4f 93       	push	r20
     22c:	5f 93       	push	r21
     22e:	6f 93       	push	r22
     230:	7f 93       	push	r23
     232:	8f 93       	push	r24
     234:	9f 93       	push	r25
     236:	af 93       	push	r26
     238:	bf 93       	push	r27
     23a:	ef 93       	push	r30
     23c:	ff 93       	push	r31
     23e:	cf 93       	push	r28
     240:	df 93       	push	r29
     242:	1f 92       	push	r1
     244:	cd b7       	in	r28, 0x3d	; 61
     246:	de b7       	in	r29, 0x3e	; 62
    uint8_t value = UDR0;
     248:	80 91 c6 00 	lds	r24, 0x00C6	; 0x8000c6 <__DATA_REGION_ORIGIN__+0x66>
     24c:	89 83       	std	Y+1, r24	; 0x01
    xQueueSendFromISR(bufor_in, (void*)&value, NULL);
     24e:	20 e0       	ldi	r18, 0x00	; 0
     250:	40 e0       	ldi	r20, 0x00	; 0
     252:	50 e0       	ldi	r21, 0x00	; 0
     254:	be 01       	movw	r22, r28
     256:	6f 5f       	subi	r22, 0xFF	; 255
     258:	7f 4f       	sbci	r23, 0xFF	; 255
     25a:	80 91 ba 07 	lds	r24, 0x07BA	; 0x8007ba <bufor_in>
     25e:	90 91 bb 07 	lds	r25, 0x07BB	; 0x8007bb <bufor_in+0x1>
     262:	0e 94 11 0c 	call	0x1822	; 0x1822 <xQueueGenericSendFromISR>
     266:	0f 90       	pop	r0
     268:	df 91       	pop	r29
     26a:	cf 91       	pop	r28
     26c:	ff 91       	pop	r31
     26e:	ef 91       	pop	r30
     270:	bf 91       	pop	r27
     272:	af 91       	pop	r26
     274:	9f 91       	pop	r25
     276:	8f 91       	pop	r24
     278:	7f 91       	pop	r23
     27a:	6f 91       	pop	r22
     27c:	5f 91       	pop	r21
     27e:	4f 91       	pop	r20
     280:	3f 91       	pop	r19
     282:	2f 91       	pop	r18
     284:	0f 90       	pop	r0
     286:	0f be       	out	0x3f, r0	; 63
     288:	0f 90       	pop	r0
     28a:	1f 90       	pop	r1
     28c:	18 95       	reti

0000028e <prvResetNextTaskUnblockTime>:
     28e:	e0 91 66 01 	lds	r30, 0x0166	; 0x800166 <pxDelayedTaskList>
     292:	f0 91 67 01 	lds	r31, 0x0167	; 0x800167 <pxDelayedTaskList+0x1>
     296:	80 81       	ld	r24, Z
     298:	81 11       	cpse	r24, r1
     29a:	03 c0       	rjmp	.+6      	; 0x2a2 <prvResetNextTaskUnblockTime+0x14>
     29c:	8f ef       	ldi	r24, 0xFF	; 255
     29e:	9f ef       	ldi	r25, 0xFF	; 255
     2a0:	0c c0       	rjmp	.+24     	; 0x2ba <prvResetNextTaskUnblockTime+0x2c>
     2a2:	e0 91 66 01 	lds	r30, 0x0166	; 0x800166 <pxDelayedTaskList>
     2a6:	f0 91 67 01 	lds	r31, 0x0167	; 0x800167 <pxDelayedTaskList+0x1>
     2aa:	05 80       	ldd	r0, Z+5	; 0x05
     2ac:	f6 81       	ldd	r31, Z+6	; 0x06
     2ae:	e0 2d       	mov	r30, r0
     2b0:	06 80       	ldd	r0, Z+6	; 0x06
     2b2:	f7 81       	ldd	r31, Z+7	; 0x07
     2b4:	e0 2d       	mov	r30, r0
     2b6:	82 81       	ldd	r24, Z+2	; 0x02
     2b8:	93 81       	ldd	r25, Z+3	; 0x03
     2ba:	90 93 3e 01 	sts	0x013E, r25	; 0x80013e <xNextTaskUnblockTime+0x1>
     2be:	80 93 3d 01 	sts	0x013D, r24	; 0x80013d <xNextTaskUnblockTime>
     2c2:	08 95       	ret

000002c4 <prvAddCurrentTaskToDelayedList>:
     2c4:	ff 92       	push	r15
     2c6:	0f 93       	push	r16
     2c8:	1f 93       	push	r17
     2ca:	cf 93       	push	r28
     2cc:	df 93       	push	r29
     2ce:	ec 01       	movw	r28, r24
     2d0:	f6 2e       	mov	r15, r22
     2d2:	00 91 45 01 	lds	r16, 0x0145	; 0x800145 <xTickCount>
     2d6:	10 91 46 01 	lds	r17, 0x0146	; 0x800146 <xTickCount+0x1>
     2da:	80 91 38 01 	lds	r24, 0x0138	; 0x800138 <__data_end>
     2de:	90 91 39 01 	lds	r25, 0x0139	; 0x800139 <__data_end+0x1>
     2e2:	02 96       	adiw	r24, 0x02	; 2
     2e4:	0e 94 fc 0f 	call	0x1ff8	; 0x1ff8 <uxListRemove>
     2e8:	cf 3f       	cpi	r28, 0xFF	; 255
     2ea:	8f ef       	ldi	r24, 0xFF	; 255
     2ec:	d8 07       	cpc	r29, r24
     2ee:	89 f4       	brne	.+34     	; 0x312 <prvAddCurrentTaskToDelayedList+0x4e>
     2f0:	ff 20       	and	r15, r15
     2f2:	79 f0       	breq	.+30     	; 0x312 <prvAddCurrentTaskToDelayedList+0x4e>
     2f4:	60 91 38 01 	lds	r22, 0x0138	; 0x800138 <__data_end>
     2f8:	70 91 39 01 	lds	r23, 0x0139	; 0x800139 <__data_end+0x1>
     2fc:	6e 5f       	subi	r22, 0xFE	; 254
     2fe:	7f 4f       	sbci	r23, 0xFF	; 255
     300:	88 e4       	ldi	r24, 0x48	; 72
     302:	91 e0       	ldi	r25, 0x01	; 1
     304:	df 91       	pop	r29
     306:	cf 91       	pop	r28
     308:	1f 91       	pop	r17
     30a:	0f 91       	pop	r16
     30c:	ff 90       	pop	r15
     30e:	0c 94 a3 0f 	jmp	0x1f46	; 0x1f46 <vListInsertEnd>
     312:	c0 0f       	add	r28, r16
     314:	d1 1f       	adc	r29, r17
     316:	e0 91 38 01 	lds	r30, 0x0138	; 0x800138 <__data_end>
     31a:	f0 91 39 01 	lds	r31, 0x0139	; 0x800139 <__data_end+0x1>
     31e:	d3 83       	std	Z+3, r29	; 0x03
     320:	c2 83       	std	Z+2, r28	; 0x02
     322:	60 91 38 01 	lds	r22, 0x0138	; 0x800138 <__data_end>
     326:	70 91 39 01 	lds	r23, 0x0139	; 0x800139 <__data_end+0x1>
     32a:	c0 17       	cp	r28, r16
     32c:	d1 07       	cpc	r29, r17
     32e:	68 f4       	brcc	.+26     	; 0x34a <prvAddCurrentTaskToDelayedList+0x86>
     330:	80 91 64 01 	lds	r24, 0x0164	; 0x800164 <pxOverflowDelayedTaskList>
     334:	90 91 65 01 	lds	r25, 0x0165	; 0x800165 <pxOverflowDelayedTaskList+0x1>
     338:	6e 5f       	subi	r22, 0xFE	; 254
     33a:	7f 4f       	sbci	r23, 0xFF	; 255
     33c:	df 91       	pop	r29
     33e:	cf 91       	pop	r28
     340:	1f 91       	pop	r17
     342:	0f 91       	pop	r16
     344:	ff 90       	pop	r15
     346:	0c 94 c4 0f 	jmp	0x1f88	; 0x1f88 <vListInsert>
     34a:	80 91 66 01 	lds	r24, 0x0166	; 0x800166 <pxDelayedTaskList>
     34e:	90 91 67 01 	lds	r25, 0x0167	; 0x800167 <pxDelayedTaskList+0x1>
     352:	6e 5f       	subi	r22, 0xFE	; 254
     354:	7f 4f       	sbci	r23, 0xFF	; 255
     356:	0e 94 c4 0f 	call	0x1f88	; 0x1f88 <vListInsert>
     35a:	80 91 3d 01 	lds	r24, 0x013D	; 0x80013d <xNextTaskUnblockTime>
     35e:	90 91 3e 01 	lds	r25, 0x013E	; 0x80013e <xNextTaskUnblockTime+0x1>
     362:	c8 17       	cp	r28, r24
     364:	d9 07       	cpc	r29, r25
     366:	20 f4       	brcc	.+8      	; 0x370 <prvAddCurrentTaskToDelayedList+0xac>
     368:	d0 93 3e 01 	sts	0x013E, r29	; 0x80013e <xNextTaskUnblockTime+0x1>
     36c:	c0 93 3d 01 	sts	0x013D, r28	; 0x80013d <xNextTaskUnblockTime>
     370:	df 91       	pop	r29
     372:	cf 91       	pop	r28
     374:	1f 91       	pop	r17
     376:	0f 91       	pop	r16
     378:	ff 90       	pop	r15
     37a:	08 95       	ret

0000037c <prvIdleTask>:
     37c:	80 91 51 01 	lds	r24, 0x0151	; 0x800151 <uxDeletedTasksWaitingCleanUp>
     380:	88 23       	and	r24, r24
     382:	09 f1       	breq	.+66     	; 0x3c6 <prvIdleTask+0x4a>
     384:	0f b6       	in	r0, 0x3f	; 63
     386:	f8 94       	cli
     388:	0f 92       	push	r0
     38a:	e0 91 57 01 	lds	r30, 0x0157	; 0x800157 <xTasksWaitingTermination+0x5>
     38e:	f0 91 58 01 	lds	r31, 0x0158	; 0x800158 <xTasksWaitingTermination+0x6>
     392:	c6 81       	ldd	r28, Z+6	; 0x06
     394:	d7 81       	ldd	r29, Z+7	; 0x07
     396:	ce 01       	movw	r24, r28
     398:	02 96       	adiw	r24, 0x02	; 2
     39a:	0e 94 fc 0f 	call	0x1ff8	; 0x1ff8 <uxListRemove>
     39e:	80 91 47 01 	lds	r24, 0x0147	; 0x800147 <uxCurrentNumberOfTasks>
     3a2:	81 50       	subi	r24, 0x01	; 1
     3a4:	80 93 47 01 	sts	0x0147, r24	; 0x800147 <uxCurrentNumberOfTasks>
     3a8:	80 91 51 01 	lds	r24, 0x0151	; 0x800151 <uxDeletedTasksWaitingCleanUp>
     3ac:	81 50       	subi	r24, 0x01	; 1
     3ae:	80 93 51 01 	sts	0x0151, r24	; 0x800151 <uxDeletedTasksWaitingCleanUp>
     3b2:	0f 90       	pop	r0
     3b4:	0f be       	out	0x3f, r0	; 63
     3b6:	8f 89       	ldd	r24, Y+23	; 0x17
     3b8:	98 8d       	ldd	r25, Y+24	; 0x18
     3ba:	0e 94 18 12 	call	0x2430	; 0x2430 <vPortFree>
     3be:	ce 01       	movw	r24, r28
     3c0:	0e 94 18 12 	call	0x2430	; 0x2430 <vPortFree>
     3c4:	db cf       	rjmp	.-74     	; 0x37c <prvIdleTask>
     3c6:	80 91 7a 01 	lds	r24, 0x017A	; 0x80017a <pxReadyTasksLists>
     3ca:	82 30       	cpi	r24, 0x02	; 2
     3cc:	10 f0       	brcs	.+4      	; 0x3d2 <prvIdleTask+0x56>
     3ce:	0e 94 d4 12 	call	0x25a8	; 0x25a8 <vPortYield>
     3d2:	0e 94 53 00 	call	0xa6	; 0xa6 <vApplicationIdleHook>
     3d6:	d2 cf       	rjmp	.-92     	; 0x37c <prvIdleTask>

000003d8 <xTaskCreate>:
     3d8:	3f 92       	push	r3
     3da:	4f 92       	push	r4
     3dc:	5f 92       	push	r5
     3de:	6f 92       	push	r6
     3e0:	7f 92       	push	r7
     3e2:	8f 92       	push	r8
     3e4:	9f 92       	push	r9
     3e6:	af 92       	push	r10
     3e8:	bf 92       	push	r11
     3ea:	cf 92       	push	r12
     3ec:	df 92       	push	r13
     3ee:	ef 92       	push	r14
     3f0:	ff 92       	push	r15
     3f2:	0f 93       	push	r16
     3f4:	1f 93       	push	r17
     3f6:	cf 93       	push	r28
     3f8:	df 93       	push	r29
     3fa:	4c 01       	movw	r8, r24
     3fc:	16 2f       	mov	r17, r22
     3fe:	37 2e       	mov	r3, r23
     400:	6a 01       	movw	r12, r20
     402:	59 01       	movw	r10, r18
     404:	ca 01       	movw	r24, r20
     406:	0e 94 e6 11 	call	0x23cc	; 0x23cc <pvPortMalloc>
     40a:	2c 01       	movw	r4, r24
     40c:	89 2b       	or	r24, r25
     40e:	09 f4       	brne	.+2      	; 0x412 <__LOCK_REGION_LENGTH__+0x12>
     410:	d3 c0       	rjmp	.+422    	; 0x5b8 <__LOCK_REGION_LENGTH__+0x1b8>
     412:	88 e2       	ldi	r24, 0x28	; 40
     414:	90 e0       	ldi	r25, 0x00	; 0
     416:	0e 94 e6 11 	call	0x23cc	; 0x23cc <pvPortMalloc>
     41a:	ec 01       	movw	r28, r24
     41c:	89 2b       	or	r24, r25
     41e:	79 f0       	breq	.+30     	; 0x43e <__LOCK_REGION_LENGTH__+0x3e>
     420:	58 8e       	std	Y+24, r5	; 0x18
     422:	4f 8a       	std	Y+23, r4	; 0x17
     424:	c6 01       	movw	r24, r12
     426:	01 97       	sbiw	r24, 0x01	; 1
     428:	32 01       	movw	r6, r4
     42a:	68 0e       	add	r6, r24
     42c:	79 1e       	adc	r7, r25
     42e:	be 01       	movw	r22, r28
     430:	67 5e       	subi	r22, 0xE7	; 231
     432:	7f 4f       	sbci	r23, 0xFF	; 255
     434:	e1 2f       	mov	r30, r17
     436:	f3 2d       	mov	r31, r3
     438:	cf 01       	movw	r24, r30
     43a:	08 96       	adiw	r24, 0x08	; 8
     43c:	07 c0       	rjmp	.+14     	; 0x44c <__LOCK_REGION_LENGTH__+0x4c>
     43e:	c2 01       	movw	r24, r4
     440:	0e 94 18 12 	call	0x2430	; 0x2430 <vPortFree>
     444:	b9 c0       	rjmp	.+370    	; 0x5b8 <__LOCK_REGION_LENGTH__+0x1b8>
     446:	e8 17       	cp	r30, r24
     448:	f9 07       	cpc	r31, r25
     44a:	49 f0       	breq	.+18     	; 0x45e <__LOCK_REGION_LENGTH__+0x5e>
     44c:	9f 01       	movw	r18, r30
     44e:	41 91       	ld	r20, Z+
     450:	db 01       	movw	r26, r22
     452:	4d 93       	st	X+, r20
     454:	bd 01       	movw	r22, r26
     456:	d9 01       	movw	r26, r18
     458:	2c 91       	ld	r18, X
     45a:	21 11       	cpse	r18, r1
     45c:	f4 cf       	rjmp	.-24     	; 0x446 <__LOCK_REGION_LENGTH__+0x46>
     45e:	18 a2       	std	Y+32, r1	; 0x20
     460:	04 30       	cpi	r16, 0x04	; 4
     462:	08 f0       	brcs	.+2      	; 0x466 <__LOCK_REGION_LENGTH__+0x66>
     464:	03 e0       	ldi	r16, 0x03	; 3
     466:	0e 8b       	std	Y+22, r16	; 0x16
     468:	09 a3       	std	Y+33, r16	; 0x21
     46a:	1a a2       	std	Y+34, r1	; 0x22
     46c:	6e 01       	movw	r12, r28
     46e:	b2 e0       	ldi	r27, 0x02	; 2
     470:	cb 0e       	add	r12, r27
     472:	d1 1c       	adc	r13, r1
     474:	c6 01       	movw	r24, r12
     476:	0e 94 9f 0f 	call	0x1f3e	; 0x1f3e <vListInitialiseItem>
     47a:	ce 01       	movw	r24, r28
     47c:	0c 96       	adiw	r24, 0x0c	; 12
     47e:	0e 94 9f 0f 	call	0x1f3e	; 0x1f3e <vListInitialiseItem>
     482:	d9 87       	std	Y+9, r29	; 0x09
     484:	c8 87       	std	Y+8, r28	; 0x08
     486:	84 e0       	ldi	r24, 0x04	; 4
     488:	90 e0       	ldi	r25, 0x00	; 0
     48a:	80 1b       	sub	r24, r16
     48c:	91 09       	sbc	r25, r1
     48e:	9d 87       	std	Y+13, r25	; 0x0d
     490:	8c 87       	std	Y+12, r24	; 0x0c
     492:	db 8b       	std	Y+19, r29	; 0x13
     494:	ca 8b       	std	Y+18, r28	; 0x12
     496:	1b a2       	std	Y+35, r1	; 0x23
     498:	1c a2       	std	Y+36, r1	; 0x24
     49a:	1d a2       	std	Y+37, r1	; 0x25
     49c:	1e a2       	std	Y+38, r1	; 0x26
     49e:	1f a2       	std	Y+39, r1	; 0x27
     4a0:	a5 01       	movw	r20, r10
     4a2:	b4 01       	movw	r22, r8
     4a4:	c3 01       	movw	r24, r6
     4a6:	0e 94 27 12 	call	0x244e	; 0x244e <pxPortInitialiseStack>
     4aa:	99 83       	std	Y+1, r25	; 0x01
     4ac:	88 83       	st	Y, r24
     4ae:	e1 14       	cp	r14, r1
     4b0:	f1 04       	cpc	r15, r1
     4b2:	19 f0       	breq	.+6      	; 0x4ba <__LOCK_REGION_LENGTH__+0xba>
     4b4:	f7 01       	movw	r30, r14
     4b6:	d1 83       	std	Z+1, r29	; 0x01
     4b8:	c0 83       	st	Z, r28
     4ba:	0f b6       	in	r0, 0x3f	; 63
     4bc:	f8 94       	cli
     4be:	0f 92       	push	r0
     4c0:	80 91 47 01 	lds	r24, 0x0147	; 0x800147 <uxCurrentNumberOfTasks>
     4c4:	8f 5f       	subi	r24, 0xFF	; 255
     4c6:	80 93 47 01 	sts	0x0147, r24	; 0x800147 <uxCurrentNumberOfTasks>
     4ca:	80 91 38 01 	lds	r24, 0x0138	; 0x800138 <__data_end>
     4ce:	90 91 39 01 	lds	r25, 0x0139	; 0x800139 <__data_end+0x1>
     4d2:	89 2b       	or	r24, r25
     4d4:	d1 f5       	brne	.+116    	; 0x54a <__LOCK_REGION_LENGTH__+0x14a>
     4d6:	d0 93 39 01 	sts	0x0139, r29	; 0x800139 <__data_end+0x1>
     4da:	c0 93 38 01 	sts	0x0138, r28	; 0x800138 <__data_end>
     4de:	80 91 47 01 	lds	r24, 0x0147	; 0x800147 <uxCurrentNumberOfTasks>
     4e2:	81 30       	cpi	r24, 0x01	; 1
     4e4:	09 f0       	breq	.+2      	; 0x4e8 <__LOCK_REGION_LENGTH__+0xe8>
     4e6:	41 c0       	rjmp	.+130    	; 0x56a <__LOCK_REGION_LENGTH__+0x16a>
     4e8:	8a e7       	ldi	r24, 0x7A	; 122
     4ea:	91 e0       	ldi	r25, 0x01	; 1
     4ec:	0e 94 91 0f 	call	0x1f22	; 0x1f22 <vListInitialise>
     4f0:	83 e8       	ldi	r24, 0x83	; 131
     4f2:	91 e0       	ldi	r25, 0x01	; 1
     4f4:	0e 94 91 0f 	call	0x1f22	; 0x1f22 <vListInitialise>
     4f8:	8c e8       	ldi	r24, 0x8C	; 140
     4fa:	91 e0       	ldi	r25, 0x01	; 1
     4fc:	0e 94 91 0f 	call	0x1f22	; 0x1f22 <vListInitialise>
     500:	85 e9       	ldi	r24, 0x95	; 149
     502:	91 e0       	ldi	r25, 0x01	; 1
     504:	0e 94 91 0f 	call	0x1f22	; 0x1f22 <vListInitialise>
     508:	81 e7       	ldi	r24, 0x71	; 113
     50a:	91 e0       	ldi	r25, 0x01	; 1
     50c:	0e 94 91 0f 	call	0x1f22	; 0x1f22 <vListInitialise>
     510:	88 e6       	ldi	r24, 0x68	; 104
     512:	91 e0       	ldi	r25, 0x01	; 1
     514:	0e 94 91 0f 	call	0x1f22	; 0x1f22 <vListInitialise>
     518:	8b e5       	ldi	r24, 0x5B	; 91
     51a:	91 e0       	ldi	r25, 0x01	; 1
     51c:	0e 94 91 0f 	call	0x1f22	; 0x1f22 <vListInitialise>
     520:	82 e5       	ldi	r24, 0x52	; 82
     522:	91 e0       	ldi	r25, 0x01	; 1
     524:	0e 94 91 0f 	call	0x1f22	; 0x1f22 <vListInitialise>
     528:	88 e4       	ldi	r24, 0x48	; 72
     52a:	91 e0       	ldi	r25, 0x01	; 1
     52c:	0e 94 91 0f 	call	0x1f22	; 0x1f22 <vListInitialise>
     530:	81 e7       	ldi	r24, 0x71	; 113
     532:	91 e0       	ldi	r25, 0x01	; 1
     534:	90 93 67 01 	sts	0x0167, r25	; 0x800167 <pxDelayedTaskList+0x1>
     538:	80 93 66 01 	sts	0x0166, r24	; 0x800166 <pxDelayedTaskList>
     53c:	88 e6       	ldi	r24, 0x68	; 104
     53e:	91 e0       	ldi	r25, 0x01	; 1
     540:	90 93 65 01 	sts	0x0165, r25	; 0x800165 <pxOverflowDelayedTaskList+0x1>
     544:	80 93 64 01 	sts	0x0164, r24	; 0x800164 <pxOverflowDelayedTaskList>
     548:	10 c0       	rjmp	.+32     	; 0x56a <__LOCK_REGION_LENGTH__+0x16a>
     54a:	80 91 43 01 	lds	r24, 0x0143	; 0x800143 <xSchedulerRunning>
     54e:	81 11       	cpse	r24, r1
     550:	0c c0       	rjmp	.+24     	; 0x56a <__LOCK_REGION_LENGTH__+0x16a>
     552:	e0 91 38 01 	lds	r30, 0x0138	; 0x800138 <__data_end>
     556:	f0 91 39 01 	lds	r31, 0x0139	; 0x800139 <__data_end+0x1>
     55a:	96 89       	ldd	r25, Z+22	; 0x16
     55c:	8e 89       	ldd	r24, Y+22	; 0x16
     55e:	89 17       	cp	r24, r25
     560:	20 f0       	brcs	.+8      	; 0x56a <__LOCK_REGION_LENGTH__+0x16a>
     562:	d0 93 39 01 	sts	0x0139, r29	; 0x800139 <__data_end+0x1>
     566:	c0 93 38 01 	sts	0x0138, r28	; 0x800138 <__data_end>
     56a:	80 91 3f 01 	lds	r24, 0x013F	; 0x80013f <uxTaskNumber>
     56e:	8f 5f       	subi	r24, 0xFF	; 255
     570:	80 93 3f 01 	sts	0x013F, r24	; 0x80013f <uxTaskNumber>
     574:	8e 89       	ldd	r24, Y+22	; 0x16
     576:	90 91 44 01 	lds	r25, 0x0144	; 0x800144 <uxTopReadyPriority>
     57a:	98 17       	cp	r25, r24
     57c:	10 f4       	brcc	.+4      	; 0x582 <__LOCK_REGION_LENGTH__+0x182>
     57e:	80 93 44 01 	sts	0x0144, r24	; 0x800144 <uxTopReadyPriority>
     582:	f9 e0       	ldi	r31, 0x09	; 9
     584:	8f 9f       	mul	r24, r31
     586:	c0 01       	movw	r24, r0
     588:	11 24       	eor	r1, r1
     58a:	b6 01       	movw	r22, r12
     58c:	86 58       	subi	r24, 0x86	; 134
     58e:	9e 4f       	sbci	r25, 0xFE	; 254
     590:	0e 94 a3 0f 	call	0x1f46	; 0x1f46 <vListInsertEnd>
     594:	0f 90       	pop	r0
     596:	0f be       	out	0x3f, r0	; 63
     598:	80 91 43 01 	lds	r24, 0x0143	; 0x800143 <xSchedulerRunning>
     59c:	88 23       	and	r24, r24
     59e:	51 f0       	breq	.+20     	; 0x5b4 <__LOCK_REGION_LENGTH__+0x1b4>
     5a0:	e0 91 38 01 	lds	r30, 0x0138	; 0x800138 <__data_end>
     5a4:	f0 91 39 01 	lds	r31, 0x0139	; 0x800139 <__data_end+0x1>
     5a8:	96 89       	ldd	r25, Z+22	; 0x16
     5aa:	8e 89       	ldd	r24, Y+22	; 0x16
     5ac:	98 17       	cp	r25, r24
     5ae:	10 f4       	brcc	.+4      	; 0x5b4 <__LOCK_REGION_LENGTH__+0x1b4>
     5b0:	0e 94 d4 12 	call	0x25a8	; 0x25a8 <vPortYield>
     5b4:	81 e0       	ldi	r24, 0x01	; 1
     5b6:	01 c0       	rjmp	.+2      	; 0x5ba <__LOCK_REGION_LENGTH__+0x1ba>
     5b8:	8f ef       	ldi	r24, 0xFF	; 255
     5ba:	df 91       	pop	r29
     5bc:	cf 91       	pop	r28
     5be:	1f 91       	pop	r17
     5c0:	0f 91       	pop	r16
     5c2:	ff 90       	pop	r15
     5c4:	ef 90       	pop	r14
     5c6:	df 90       	pop	r13
     5c8:	cf 90       	pop	r12
     5ca:	bf 90       	pop	r11
     5cc:	af 90       	pop	r10
     5ce:	9f 90       	pop	r9
     5d0:	8f 90       	pop	r8
     5d2:	7f 90       	pop	r7
     5d4:	6f 90       	pop	r6
     5d6:	5f 90       	pop	r5
     5d8:	4f 90       	pop	r4
     5da:	3f 90       	pop	r3
     5dc:	08 95       	ret

000005de <vTaskDelete>:
     5de:	0f 93       	push	r16
     5e0:	1f 93       	push	r17
     5e2:	cf 93       	push	r28
     5e4:	df 93       	push	r29
     5e6:	ec 01       	movw	r28, r24
     5e8:	0f b6       	in	r0, 0x3f	; 63
     5ea:	f8 94       	cli
     5ec:	0f 92       	push	r0
     5ee:	89 2b       	or	r24, r25
     5f0:	21 f4       	brne	.+8      	; 0x5fa <vTaskDelete+0x1c>
     5f2:	c0 91 38 01 	lds	r28, 0x0138	; 0x800138 <__data_end>
     5f6:	d0 91 39 01 	lds	r29, 0x0139	; 0x800139 <__data_end+0x1>
     5fa:	8e 01       	movw	r16, r28
     5fc:	0e 5f       	subi	r16, 0xFE	; 254
     5fe:	1f 4f       	sbci	r17, 0xFF	; 255
     600:	c8 01       	movw	r24, r16
     602:	0e 94 fc 0f 	call	0x1ff8	; 0x1ff8 <uxListRemove>
     606:	8c 89       	ldd	r24, Y+20	; 0x14
     608:	9d 89       	ldd	r25, Y+21	; 0x15
     60a:	89 2b       	or	r24, r25
     60c:	21 f0       	breq	.+8      	; 0x616 <vTaskDelete+0x38>
     60e:	ce 01       	movw	r24, r28
     610:	0c 96       	adiw	r24, 0x0c	; 12
     612:	0e 94 fc 0f 	call	0x1ff8	; 0x1ff8 <uxListRemove>
     616:	80 91 3f 01 	lds	r24, 0x013F	; 0x80013f <uxTaskNumber>
     61a:	8f 5f       	subi	r24, 0xFF	; 255
     61c:	80 93 3f 01 	sts	0x013F, r24	; 0x80013f <uxTaskNumber>
     620:	80 91 38 01 	lds	r24, 0x0138	; 0x800138 <__data_end>
     624:	90 91 39 01 	lds	r25, 0x0139	; 0x800139 <__data_end+0x1>
     628:	c8 17       	cp	r28, r24
     62a:	d9 07       	cpc	r29, r25
     62c:	59 f4       	brne	.+22     	; 0x644 <vTaskDelete+0x66>
     62e:	b8 01       	movw	r22, r16
     630:	82 e5       	ldi	r24, 0x52	; 82
     632:	91 e0       	ldi	r25, 0x01	; 1
     634:	0e 94 a3 0f 	call	0x1f46	; 0x1f46 <vListInsertEnd>
     638:	80 91 51 01 	lds	r24, 0x0151	; 0x800151 <uxDeletedTasksWaitingCleanUp>
     63c:	8f 5f       	subi	r24, 0xFF	; 255
     63e:	80 93 51 01 	sts	0x0151, r24	; 0x800151 <uxDeletedTasksWaitingCleanUp>
     642:	0e c0       	rjmp	.+28     	; 0x660 <vTaskDelete+0x82>
     644:	80 91 47 01 	lds	r24, 0x0147	; 0x800147 <uxCurrentNumberOfTasks>
     648:	81 50       	subi	r24, 0x01	; 1
     64a:	80 93 47 01 	sts	0x0147, r24	; 0x800147 <uxCurrentNumberOfTasks>
     64e:	8f 89       	ldd	r24, Y+23	; 0x17
     650:	98 8d       	ldd	r25, Y+24	; 0x18
     652:	0e 94 18 12 	call	0x2430	; 0x2430 <vPortFree>
     656:	ce 01       	movw	r24, r28
     658:	0e 94 18 12 	call	0x2430	; 0x2430 <vPortFree>
     65c:	0e 94 47 01 	call	0x28e	; 0x28e <prvResetNextTaskUnblockTime>
     660:	0f 90       	pop	r0
     662:	0f be       	out	0x3f, r0	; 63
     664:	80 91 43 01 	lds	r24, 0x0143	; 0x800143 <xSchedulerRunning>
     668:	88 23       	and	r24, r24
     66a:	49 f0       	breq	.+18     	; 0x67e <vTaskDelete+0xa0>
     66c:	80 91 38 01 	lds	r24, 0x0138	; 0x800138 <__data_end>
     670:	90 91 39 01 	lds	r25, 0x0139	; 0x800139 <__data_end+0x1>
     674:	c8 17       	cp	r28, r24
     676:	d9 07       	cpc	r29, r25
     678:	11 f4       	brne	.+4      	; 0x67e <vTaskDelete+0xa0>
     67a:	0e 94 d4 12 	call	0x25a8	; 0x25a8 <vPortYield>
     67e:	df 91       	pop	r29
     680:	cf 91       	pop	r28
     682:	1f 91       	pop	r17
     684:	0f 91       	pop	r16
     686:	08 95       	ret

00000688 <vTaskResume>:
     688:	0f 93       	push	r16
     68a:	1f 93       	push	r17
     68c:	cf 93       	push	r28
     68e:	df 93       	push	r29
     690:	20 91 38 01 	lds	r18, 0x0138	; 0x800138 <__data_end>
     694:	30 91 39 01 	lds	r19, 0x0139	; 0x800139 <__data_end+0x1>
     698:	82 17       	cp	r24, r18
     69a:	93 07       	cpc	r25, r19
     69c:	b9 f1       	breq	.+110    	; 0x70c <vTaskResume+0x84>
     69e:	00 97       	sbiw	r24, 0x00	; 0
     6a0:	a9 f1       	breq	.+106    	; 0x70c <vTaskResume+0x84>
     6a2:	0f b6       	in	r0, 0x3f	; 63
     6a4:	f8 94       	cli
     6a6:	0f 92       	push	r0
     6a8:	fc 01       	movw	r30, r24
     6aa:	22 85       	ldd	r18, Z+10	; 0x0a
     6ac:	33 85       	ldd	r19, Z+11	; 0x0b
     6ae:	28 54       	subi	r18, 0x48	; 72
     6b0:	31 40       	sbci	r19, 0x01	; 1
     6b2:	51 f5       	brne	.+84     	; 0x708 <vTaskResume+0x80>
     6b4:	fc 01       	movw	r30, r24
     6b6:	24 89       	ldd	r18, Z+20	; 0x14
     6b8:	35 89       	ldd	r19, Z+21	; 0x15
     6ba:	f1 e0       	ldi	r31, 0x01	; 1
     6bc:	2b 35       	cpi	r18, 0x5B	; 91
     6be:	3f 07       	cpc	r19, r31
     6c0:	19 f1       	breq	.+70     	; 0x708 <vTaskResume+0x80>
     6c2:	23 2b       	or	r18, r19
     6c4:	09 f5       	brne	.+66     	; 0x708 <vTaskResume+0x80>
     6c6:	ec 01       	movw	r28, r24
     6c8:	8c 01       	movw	r16, r24
     6ca:	0e 5f       	subi	r16, 0xFE	; 254
     6cc:	1f 4f       	sbci	r17, 0xFF	; 255
     6ce:	c8 01       	movw	r24, r16
     6d0:	0e 94 fc 0f 	call	0x1ff8	; 0x1ff8 <uxListRemove>
     6d4:	8e 89       	ldd	r24, Y+22	; 0x16
     6d6:	90 91 44 01 	lds	r25, 0x0144	; 0x800144 <uxTopReadyPriority>
     6da:	98 17       	cp	r25, r24
     6dc:	10 f4       	brcc	.+4      	; 0x6e2 <vTaskResume+0x5a>
     6de:	80 93 44 01 	sts	0x0144, r24	; 0x800144 <uxTopReadyPriority>
     6e2:	29 e0       	ldi	r18, 0x09	; 9
     6e4:	82 9f       	mul	r24, r18
     6e6:	c0 01       	movw	r24, r0
     6e8:	11 24       	eor	r1, r1
     6ea:	b8 01       	movw	r22, r16
     6ec:	86 58       	subi	r24, 0x86	; 134
     6ee:	9e 4f       	sbci	r25, 0xFE	; 254
     6f0:	0e 94 a3 0f 	call	0x1f46	; 0x1f46 <vListInsertEnd>
     6f4:	e0 91 38 01 	lds	r30, 0x0138	; 0x800138 <__data_end>
     6f8:	f0 91 39 01 	lds	r31, 0x0139	; 0x800139 <__data_end+0x1>
     6fc:	9e 89       	ldd	r25, Y+22	; 0x16
     6fe:	86 89       	ldd	r24, Z+22	; 0x16
     700:	98 17       	cp	r25, r24
     702:	10 f0       	brcs	.+4      	; 0x708 <vTaskResume+0x80>
     704:	0e 94 d4 12 	call	0x25a8	; 0x25a8 <vPortYield>
     708:	0f 90       	pop	r0
     70a:	0f be       	out	0x3f, r0	; 63
     70c:	df 91       	pop	r29
     70e:	cf 91       	pop	r28
     710:	1f 91       	pop	r17
     712:	0f 91       	pop	r16
     714:	08 95       	ret

00000716 <xTaskResumeFromISR>:
     716:	ef 92       	push	r14
     718:	ff 92       	push	r15
     71a:	1f 93       	push	r17
     71c:	cf 93       	push	r28
     71e:	df 93       	push	r29
     720:	ec 01       	movw	r28, r24
     722:	8a 85       	ldd	r24, Y+10	; 0x0a
     724:	9b 85       	ldd	r25, Y+11	; 0x0b
     726:	88 54       	subi	r24, 0x48	; 72
     728:	91 40       	sbci	r25, 0x01	; 1
     72a:	99 f4       	brne	.+38     	; 0x752 <xTaskResumeFromISR+0x3c>
     72c:	8c 89       	ldd	r24, Y+20	; 0x14
     72e:	9d 89       	ldd	r25, Y+21	; 0x15
     730:	21 e0       	ldi	r18, 0x01	; 1
     732:	8b 35       	cpi	r24, 0x5B	; 91
     734:	92 07       	cpc	r25, r18
     736:	69 f0       	breq	.+26     	; 0x752 <xTaskResumeFromISR+0x3c>
     738:	89 2b       	or	r24, r25
     73a:	59 f4       	brne	.+22     	; 0x752 <xTaskResumeFromISR+0x3c>
     73c:	80 91 3a 01 	lds	r24, 0x013A	; 0x80013a <uxSchedulerSuspended>
     740:	88 23       	and	r24, r24
     742:	49 f0       	breq	.+18     	; 0x756 <xTaskResumeFromISR+0x40>
     744:	be 01       	movw	r22, r28
     746:	64 5f       	subi	r22, 0xF4	; 244
     748:	7f 4f       	sbci	r23, 0xFF	; 255
     74a:	8b e5       	ldi	r24, 0x5B	; 91
     74c:	91 e0       	ldi	r25, 0x01	; 1
     74e:	0e 94 a3 0f 	call	0x1f46	; 0x1f46 <vListInsertEnd>
     752:	10 e0       	ldi	r17, 0x00	; 0
     754:	21 c0       	rjmp	.+66     	; 0x798 <xTaskResumeFromISR+0x82>
     756:	e0 91 38 01 	lds	r30, 0x0138	; 0x800138 <__data_end>
     75a:	f0 91 39 01 	lds	r31, 0x0139	; 0x800139 <__data_end+0x1>
     75e:	11 e0       	ldi	r17, 0x01	; 1
     760:	9e 89       	ldd	r25, Y+22	; 0x16
     762:	86 89       	ldd	r24, Z+22	; 0x16
     764:	98 17       	cp	r25, r24
     766:	08 f4       	brcc	.+2      	; 0x76a <xTaskResumeFromISR+0x54>
     768:	10 e0       	ldi	r17, 0x00	; 0
     76a:	7e 01       	movw	r14, r28
     76c:	82 e0       	ldi	r24, 0x02	; 2
     76e:	e8 0e       	add	r14, r24
     770:	f1 1c       	adc	r15, r1
     772:	c7 01       	movw	r24, r14
     774:	0e 94 fc 0f 	call	0x1ff8	; 0x1ff8 <uxListRemove>
     778:	8e 89       	ldd	r24, Y+22	; 0x16
     77a:	90 91 44 01 	lds	r25, 0x0144	; 0x800144 <uxTopReadyPriority>
     77e:	98 17       	cp	r25, r24
     780:	10 f4       	brcc	.+4      	; 0x786 <xTaskResumeFromISR+0x70>
     782:	80 93 44 01 	sts	0x0144, r24	; 0x800144 <uxTopReadyPriority>
     786:	29 e0       	ldi	r18, 0x09	; 9
     788:	82 9f       	mul	r24, r18
     78a:	c0 01       	movw	r24, r0
     78c:	11 24       	eor	r1, r1
     78e:	b7 01       	movw	r22, r14
     790:	86 58       	subi	r24, 0x86	; 134
     792:	9e 4f       	sbci	r25, 0xFE	; 254
     794:	0e 94 a3 0f 	call	0x1f46	; 0x1f46 <vListInsertEnd>
     798:	81 2f       	mov	r24, r17
     79a:	df 91       	pop	r29
     79c:	cf 91       	pop	r28
     79e:	1f 91       	pop	r17
     7a0:	ff 90       	pop	r15
     7a2:	ef 90       	pop	r14
     7a4:	08 95       	ret

000007a6 <vTaskStartScheduler>:
     7a6:	ef 92       	push	r14
     7a8:	ff 92       	push	r15
     7aa:	0f 93       	push	r16
     7ac:	8b e3       	ldi	r24, 0x3B	; 59
     7ae:	e8 2e       	mov	r14, r24
     7b0:	81 e0       	ldi	r24, 0x01	; 1
     7b2:	f8 2e       	mov	r15, r24
     7b4:	00 e0       	ldi	r16, 0x00	; 0
     7b6:	20 e0       	ldi	r18, 0x00	; 0
     7b8:	30 e0       	ldi	r19, 0x00	; 0
     7ba:	45 e5       	ldi	r20, 0x55	; 85
     7bc:	50 e0       	ldi	r21, 0x00	; 0
     7be:	63 e3       	ldi	r22, 0x33	; 51
     7c0:	71 e0       	ldi	r23, 0x01	; 1
     7c2:	8e eb       	ldi	r24, 0xBE	; 190
     7c4:	91 e0       	ldi	r25, 0x01	; 1
     7c6:	0e 94 ec 01 	call	0x3d8	; 0x3d8 <xTaskCreate>
     7ca:	81 30       	cpi	r24, 0x01	; 1
     7cc:	91 f4       	brne	.+36     	; 0x7f2 <vTaskStartScheduler+0x4c>
     7ce:	f8 94       	cli
     7d0:	2f ef       	ldi	r18, 0xFF	; 255
     7d2:	3f ef       	ldi	r19, 0xFF	; 255
     7d4:	30 93 3e 01 	sts	0x013E, r19	; 0x80013e <xNextTaskUnblockTime+0x1>
     7d8:	20 93 3d 01 	sts	0x013D, r18	; 0x80013d <xNextTaskUnblockTime>
     7dc:	80 93 43 01 	sts	0x0143, r24	; 0x800143 <xSchedulerRunning>
     7e0:	10 92 46 01 	sts	0x0146, r1	; 0x800146 <xTickCount+0x1>
     7e4:	10 92 45 01 	sts	0x0145, r1	; 0x800145 <xTickCount>
     7e8:	0f 91       	pop	r16
     7ea:	ff 90       	pop	r15
     7ec:	ef 90       	pop	r14
     7ee:	0c 94 93 12 	jmp	0x2526	; 0x2526 <xPortStartScheduler>
     7f2:	0f 91       	pop	r16
     7f4:	ff 90       	pop	r15
     7f6:	ef 90       	pop	r14
     7f8:	08 95       	ret

000007fa <vTaskEndScheduler>:
     7fa:	f8 94       	cli
     7fc:	10 92 43 01 	sts	0x0143, r1	; 0x800143 <xSchedulerRunning>
     800:	0c 94 d3 12 	jmp	0x25a6	; 0x25a6 <vPortEndScheduler>

00000804 <vTaskSuspendAll>:
     804:	80 91 3a 01 	lds	r24, 0x013A	; 0x80013a <uxSchedulerSuspended>
     808:	8f 5f       	subi	r24, 0xFF	; 255
     80a:	80 93 3a 01 	sts	0x013A, r24	; 0x80013a <uxSchedulerSuspended>
     80e:	08 95       	ret

00000810 <xTaskGetTickCount>:
     810:	0f b6       	in	r0, 0x3f	; 63
     812:	f8 94       	cli
     814:	0f 92       	push	r0
     816:	80 91 45 01 	lds	r24, 0x0145	; 0x800145 <xTickCount>
     81a:	90 91 46 01 	lds	r25, 0x0146	; 0x800146 <xTickCount+0x1>
     81e:	0f 90       	pop	r0
     820:	0f be       	out	0x3f, r0	; 63
     822:	08 95       	ret

00000824 <xTaskGetTickCountFromISR>:
     824:	80 91 45 01 	lds	r24, 0x0145	; 0x800145 <xTickCount>
     828:	90 91 46 01 	lds	r25, 0x0146	; 0x800146 <xTickCount+0x1>
     82c:	08 95       	ret

0000082e <uxTaskGetNumberOfTasks>:
     82e:	80 91 47 01 	lds	r24, 0x0147	; 0x800147 <uxCurrentNumberOfTasks>
     832:	08 95       	ret

00000834 <pcTaskGetName>:
     834:	00 97       	sbiw	r24, 0x00	; 0
     836:	21 f4       	brne	.+8      	; 0x840 <pcTaskGetName+0xc>
     838:	80 91 38 01 	lds	r24, 0x0138	; 0x800138 <__data_end>
     83c:	90 91 39 01 	lds	r25, 0x0139	; 0x800139 <__data_end+0x1>
     840:	49 96       	adiw	r24, 0x19	; 25
     842:	08 95       	ret

00000844 <xTaskIncrementTick>:
     844:	cf 92       	push	r12
     846:	df 92       	push	r13
     848:	ef 92       	push	r14
     84a:	ff 92       	push	r15
     84c:	0f 93       	push	r16
     84e:	1f 93       	push	r17
     850:	cf 93       	push	r28
     852:	df 93       	push	r29
     854:	80 91 3a 01 	lds	r24, 0x013A	; 0x80013a <uxSchedulerSuspended>
     858:	81 11       	cpse	r24, r1
     85a:	8c c0       	rjmp	.+280    	; 0x974 <__stack+0x75>
     85c:	00 91 45 01 	lds	r16, 0x0145	; 0x800145 <xTickCount>
     860:	10 91 46 01 	lds	r17, 0x0146	; 0x800146 <xTickCount+0x1>
     864:	0f 5f       	subi	r16, 0xFF	; 255
     866:	1f 4f       	sbci	r17, 0xFF	; 255
     868:	10 93 46 01 	sts	0x0146, r17	; 0x800146 <xTickCount+0x1>
     86c:	00 93 45 01 	sts	0x0145, r16	; 0x800145 <xTickCount>
     870:	01 15       	cp	r16, r1
     872:	11 05       	cpc	r17, r1
     874:	b9 f4       	brne	.+46     	; 0x8a4 <xTaskIncrementTick+0x60>
     876:	80 91 66 01 	lds	r24, 0x0166	; 0x800166 <pxDelayedTaskList>
     87a:	90 91 67 01 	lds	r25, 0x0167	; 0x800167 <pxDelayedTaskList+0x1>
     87e:	20 91 64 01 	lds	r18, 0x0164	; 0x800164 <pxOverflowDelayedTaskList>
     882:	30 91 65 01 	lds	r19, 0x0165	; 0x800165 <pxOverflowDelayedTaskList+0x1>
     886:	30 93 67 01 	sts	0x0167, r19	; 0x800167 <pxDelayedTaskList+0x1>
     88a:	20 93 66 01 	sts	0x0166, r18	; 0x800166 <pxDelayedTaskList>
     88e:	90 93 65 01 	sts	0x0165, r25	; 0x800165 <pxOverflowDelayedTaskList+0x1>
     892:	80 93 64 01 	sts	0x0164, r24	; 0x800164 <pxOverflowDelayedTaskList>
     896:	80 91 40 01 	lds	r24, 0x0140	; 0x800140 <xNumOfOverflows>
     89a:	8f 5f       	subi	r24, 0xFF	; 255
     89c:	80 93 40 01 	sts	0x0140, r24	; 0x800140 <xNumOfOverflows>
     8a0:	0e 94 47 01 	call	0x28e	; 0x28e <prvResetNextTaskUnblockTime>
     8a4:	80 91 3d 01 	lds	r24, 0x013D	; 0x80013d <xNextTaskUnblockTime>
     8a8:	90 91 3e 01 	lds	r25, 0x013E	; 0x80013e <xNextTaskUnblockTime+0x1>
     8ac:	c0 e0       	ldi	r28, 0x00	; 0
     8ae:	08 17       	cp	r16, r24
     8b0:	19 07       	cpc	r17, r25
     8b2:	08 f4       	brcc	.+2      	; 0x8b6 <xTaskIncrementTick+0x72>
     8b4:	4f c0       	rjmp	.+158    	; 0x954 <__stack+0x55>
     8b6:	d9 e0       	ldi	r29, 0x09	; 9
     8b8:	e0 91 66 01 	lds	r30, 0x0166	; 0x800166 <pxDelayedTaskList>
     8bc:	f0 91 67 01 	lds	r31, 0x0167	; 0x800167 <pxDelayedTaskList+0x1>
     8c0:	80 81       	ld	r24, Z
     8c2:	81 11       	cpse	r24, r1
     8c4:	03 c0       	rjmp	.+6      	; 0x8cc <xTaskIncrementTick+0x88>
     8c6:	8f ef       	ldi	r24, 0xFF	; 255
     8c8:	9f ef       	ldi	r25, 0xFF	; 255
     8ca:	11 c0       	rjmp	.+34     	; 0x8ee <xTaskIncrementTick+0xaa>
     8cc:	e0 91 66 01 	lds	r30, 0x0166	; 0x800166 <pxDelayedTaskList>
     8d0:	f0 91 67 01 	lds	r31, 0x0167	; 0x800167 <pxDelayedTaskList+0x1>
     8d4:	05 80       	ldd	r0, Z+5	; 0x05
     8d6:	f6 81       	ldd	r31, Z+6	; 0x06
     8d8:	e0 2d       	mov	r30, r0
     8da:	e6 80       	ldd	r14, Z+6	; 0x06
     8dc:	f7 80       	ldd	r15, Z+7	; 0x07
     8de:	d7 01       	movw	r26, r14
     8e0:	12 96       	adiw	r26, 0x02	; 2
     8e2:	8d 91       	ld	r24, X+
     8e4:	9c 91       	ld	r25, X
     8e6:	13 97       	sbiw	r26, 0x03	; 3
     8e8:	08 17       	cp	r16, r24
     8ea:	19 07       	cpc	r17, r25
     8ec:	28 f4       	brcc	.+10     	; 0x8f8 <xTaskIncrementTick+0xb4>
     8ee:	90 93 3e 01 	sts	0x013E, r25	; 0x80013e <xNextTaskUnblockTime+0x1>
     8f2:	80 93 3d 01 	sts	0x013D, r24	; 0x80013d <xNextTaskUnblockTime>
     8f6:	2e c0       	rjmp	.+92     	; 0x954 <__stack+0x55>
     8f8:	67 01       	movw	r12, r14
     8fa:	b2 e0       	ldi	r27, 0x02	; 2
     8fc:	cb 0e       	add	r12, r27
     8fe:	d1 1c       	adc	r13, r1
     900:	c6 01       	movw	r24, r12
     902:	0e 94 fc 0f 	call	0x1ff8	; 0x1ff8 <uxListRemove>
     906:	f7 01       	movw	r30, r14
     908:	84 89       	ldd	r24, Z+20	; 0x14
     90a:	95 89       	ldd	r25, Z+21	; 0x15
     90c:	89 2b       	or	r24, r25
     90e:	21 f0       	breq	.+8      	; 0x918 <__stack+0x19>
     910:	c7 01       	movw	r24, r14
     912:	0c 96       	adiw	r24, 0x0c	; 12
     914:	0e 94 fc 0f 	call	0x1ff8	; 0x1ff8 <uxListRemove>
     918:	d7 01       	movw	r26, r14
     91a:	56 96       	adiw	r26, 0x16	; 22
     91c:	8c 91       	ld	r24, X
     91e:	90 91 44 01 	lds	r25, 0x0144	; 0x800144 <uxTopReadyPriority>
     922:	98 17       	cp	r25, r24
     924:	10 f4       	brcc	.+4      	; 0x92a <__stack+0x2b>
     926:	80 93 44 01 	sts	0x0144, r24	; 0x800144 <uxTopReadyPriority>
     92a:	d8 9f       	mul	r29, r24
     92c:	c0 01       	movw	r24, r0
     92e:	11 24       	eor	r1, r1
     930:	b6 01       	movw	r22, r12
     932:	86 58       	subi	r24, 0x86	; 134
     934:	9e 4f       	sbci	r25, 0xFE	; 254
     936:	0e 94 a3 0f 	call	0x1f46	; 0x1f46 <vListInsertEnd>
     93a:	e0 91 38 01 	lds	r30, 0x0138	; 0x800138 <__data_end>
     93e:	f0 91 39 01 	lds	r31, 0x0139	; 0x800139 <__data_end+0x1>
     942:	d7 01       	movw	r26, r14
     944:	56 96       	adiw	r26, 0x16	; 22
     946:	9c 91       	ld	r25, X
     948:	86 89       	ldd	r24, Z+22	; 0x16
     94a:	98 17       	cp	r25, r24
     94c:	08 f4       	brcc	.+2      	; 0x950 <__stack+0x51>
     94e:	b4 cf       	rjmp	.-152    	; 0x8b8 <xTaskIncrementTick+0x74>
     950:	c1 e0       	ldi	r28, 0x01	; 1
     952:	b2 cf       	rjmp	.-156    	; 0x8b8 <xTaskIncrementTick+0x74>
     954:	e0 91 38 01 	lds	r30, 0x0138	; 0x800138 <__data_end>
     958:	f0 91 39 01 	lds	r31, 0x0139	; 0x800139 <__data_end+0x1>
     95c:	e6 89       	ldd	r30, Z+22	; 0x16
     95e:	b9 e0       	ldi	r27, 0x09	; 9
     960:	eb 9f       	mul	r30, r27
     962:	f0 01       	movw	r30, r0
     964:	11 24       	eor	r1, r1
     966:	e6 58       	subi	r30, 0x86	; 134
     968:	fe 4f       	sbci	r31, 0xFE	; 254
     96a:	80 81       	ld	r24, Z
     96c:	82 30       	cpi	r24, 0x02	; 2
     96e:	40 f0       	brcs	.+16     	; 0x980 <__stack+0x81>
     970:	c1 e0       	ldi	r28, 0x01	; 1
     972:	06 c0       	rjmp	.+12     	; 0x980 <__stack+0x81>
     974:	80 91 42 01 	lds	r24, 0x0142	; 0x800142 <uxPendedTicks>
     978:	8f 5f       	subi	r24, 0xFF	; 255
     97a:	80 93 42 01 	sts	0x0142, r24	; 0x800142 <uxPendedTicks>
     97e:	c0 e0       	ldi	r28, 0x00	; 0
     980:	80 91 41 01 	lds	r24, 0x0141	; 0x800141 <xYieldPending>
     984:	81 11       	cpse	r24, r1
     986:	c1 e0       	ldi	r28, 0x01	; 1
     988:	8c 2f       	mov	r24, r28
     98a:	df 91       	pop	r29
     98c:	cf 91       	pop	r28
     98e:	1f 91       	pop	r17
     990:	0f 91       	pop	r16
     992:	ff 90       	pop	r15
     994:	ef 90       	pop	r14
     996:	df 90       	pop	r13
     998:	cf 90       	pop	r12
     99a:	08 95       	ret

0000099c <xTaskResumeAll>:
     99c:	ef 92       	push	r14
     99e:	ff 92       	push	r15
     9a0:	0f 93       	push	r16
     9a2:	1f 93       	push	r17
     9a4:	cf 93       	push	r28
     9a6:	df 93       	push	r29
     9a8:	0f b6       	in	r0, 0x3f	; 63
     9aa:	f8 94       	cli
     9ac:	0f 92       	push	r0
     9ae:	80 91 3a 01 	lds	r24, 0x013A	; 0x80013a <uxSchedulerSuspended>
     9b2:	81 50       	subi	r24, 0x01	; 1
     9b4:	80 93 3a 01 	sts	0x013A, r24	; 0x80013a <uxSchedulerSuspended>
     9b8:	80 91 3a 01 	lds	r24, 0x013A	; 0x80013a <uxSchedulerSuspended>
     9bc:	88 23       	and	r24, r24
     9be:	11 f0       	breq	.+4      	; 0x9c4 <xTaskResumeAll+0x28>
     9c0:	80 e0       	ldi	r24, 0x00	; 0
     9c2:	52 c0       	rjmp	.+164    	; 0xa68 <xTaskResumeAll+0xcc>
     9c4:	80 91 47 01 	lds	r24, 0x0147	; 0x800147 <uxCurrentNumberOfTasks>
     9c8:	88 23       	and	r24, r24
     9ca:	d1 f3       	breq	.-12     	; 0x9c0 <xTaskResumeAll+0x24>
     9cc:	c0 e0       	ldi	r28, 0x00	; 0
     9ce:	d0 e0       	ldi	r29, 0x00	; 0
     9d0:	89 e0       	ldi	r24, 0x09	; 9
     9d2:	f8 2e       	mov	r15, r24
     9d4:	ee 24       	eor	r14, r14
     9d6:	e3 94       	inc	r14
     9d8:	80 91 5b 01 	lds	r24, 0x015B	; 0x80015b <xPendingReadyList>
     9dc:	88 23       	and	r24, r24
     9de:	51 f1       	breq	.+84     	; 0xa34 <xTaskResumeAll+0x98>
     9e0:	e0 91 60 01 	lds	r30, 0x0160	; 0x800160 <xPendingReadyList+0x5>
     9e4:	f0 91 61 01 	lds	r31, 0x0161	; 0x800161 <xPendingReadyList+0x6>
     9e8:	c6 81       	ldd	r28, Z+6	; 0x06
     9ea:	d7 81       	ldd	r29, Z+7	; 0x07
     9ec:	ce 01       	movw	r24, r28
     9ee:	0c 96       	adiw	r24, 0x0c	; 12
     9f0:	0e 94 fc 0f 	call	0x1ff8	; 0x1ff8 <uxListRemove>
     9f4:	8e 01       	movw	r16, r28
     9f6:	0e 5f       	subi	r16, 0xFE	; 254
     9f8:	1f 4f       	sbci	r17, 0xFF	; 255
     9fa:	c8 01       	movw	r24, r16
     9fc:	0e 94 fc 0f 	call	0x1ff8	; 0x1ff8 <uxListRemove>
     a00:	8e 89       	ldd	r24, Y+22	; 0x16
     a02:	90 91 44 01 	lds	r25, 0x0144	; 0x800144 <uxTopReadyPriority>
     a06:	98 17       	cp	r25, r24
     a08:	10 f4       	brcc	.+4      	; 0xa0e <xTaskResumeAll+0x72>
     a0a:	80 93 44 01 	sts	0x0144, r24	; 0x800144 <uxTopReadyPriority>
     a0e:	f8 9e       	mul	r15, r24
     a10:	c0 01       	movw	r24, r0
     a12:	11 24       	eor	r1, r1
     a14:	b8 01       	movw	r22, r16
     a16:	86 58       	subi	r24, 0x86	; 134
     a18:	9e 4f       	sbci	r25, 0xFE	; 254
     a1a:	0e 94 a3 0f 	call	0x1f46	; 0x1f46 <vListInsertEnd>
     a1e:	e0 91 38 01 	lds	r30, 0x0138	; 0x800138 <__data_end>
     a22:	f0 91 39 01 	lds	r31, 0x0139	; 0x800139 <__data_end+0x1>
     a26:	9e 89       	ldd	r25, Y+22	; 0x16
     a28:	86 89       	ldd	r24, Z+22	; 0x16
     a2a:	98 17       	cp	r25, r24
     a2c:	a8 f2       	brcs	.-86     	; 0x9d8 <xTaskResumeAll+0x3c>
     a2e:	e0 92 41 01 	sts	0x0141, r14	; 0x800141 <xYieldPending>
     a32:	d2 cf       	rjmp	.-92     	; 0x9d8 <xTaskResumeAll+0x3c>
     a34:	cd 2b       	or	r28, r29
     a36:	11 f0       	breq	.+4      	; 0xa3c <xTaskResumeAll+0xa0>
     a38:	0e 94 47 01 	call	0x28e	; 0x28e <prvResetNextTaskUnblockTime>
     a3c:	c0 91 42 01 	lds	r28, 0x0142	; 0x800142 <uxPendedTicks>
     a40:	cc 23       	and	r28, r28
     a42:	51 f0       	breq	.+20     	; 0xa58 <xTaskResumeAll+0xbc>
     a44:	d1 e0       	ldi	r29, 0x01	; 1
     a46:	0e 94 22 04 	call	0x844	; 0x844 <xTaskIncrementTick>
     a4a:	81 11       	cpse	r24, r1
     a4c:	d0 93 41 01 	sts	0x0141, r29	; 0x800141 <xYieldPending>
     a50:	c1 50       	subi	r28, 0x01	; 1
     a52:	c9 f7       	brne	.-14     	; 0xa46 <xTaskResumeAll+0xaa>
     a54:	10 92 42 01 	sts	0x0142, r1	; 0x800142 <uxPendedTicks>
     a58:	80 91 41 01 	lds	r24, 0x0141	; 0x800141 <xYieldPending>
     a5c:	88 23       	and	r24, r24
     a5e:	09 f4       	brne	.+2      	; 0xa62 <xTaskResumeAll+0xc6>
     a60:	af cf       	rjmp	.-162    	; 0x9c0 <xTaskResumeAll+0x24>
     a62:	0e 94 d4 12 	call	0x25a8	; 0x25a8 <vPortYield>
     a66:	81 e0       	ldi	r24, 0x01	; 1
     a68:	0f 90       	pop	r0
     a6a:	0f be       	out	0x3f, r0	; 63
     a6c:	df 91       	pop	r29
     a6e:	cf 91       	pop	r28
     a70:	1f 91       	pop	r17
     a72:	0f 91       	pop	r16
     a74:	ff 90       	pop	r15
     a76:	ef 90       	pop	r14
     a78:	08 95       	ret

00000a7a <vTaskDelayUntil>:
     a7a:	0f 93       	push	r16
     a7c:	1f 93       	push	r17
     a7e:	cf 93       	push	r28
     a80:	df 93       	push	r29
     a82:	8c 01       	movw	r16, r24
     a84:	eb 01       	movw	r28, r22
     a86:	0e 94 02 04 	call	0x804	; 0x804 <vTaskSuspendAll>
     a8a:	40 91 45 01 	lds	r20, 0x0145	; 0x800145 <xTickCount>
     a8e:	50 91 46 01 	lds	r21, 0x0146	; 0x800146 <xTickCount+0x1>
     a92:	f8 01       	movw	r30, r16
     a94:	20 81       	ld	r18, Z
     a96:	31 81       	ldd	r19, Z+1	; 0x01
     a98:	c9 01       	movw	r24, r18
     a9a:	8c 0f       	add	r24, r28
     a9c:	9d 1f       	adc	r25, r29
     a9e:	42 17       	cp	r20, r18
     aa0:	53 07       	cpc	r21, r19
     aa2:	20 f4       	brcc	.+8      	; 0xaac <vTaskDelayUntil+0x32>
     aa4:	82 17       	cp	r24, r18
     aa6:	93 07       	cpc	r25, r19
     aa8:	40 f4       	brcc	.+16     	; 0xaba <vTaskDelayUntil+0x40>
     aaa:	03 c0       	rjmp	.+6      	; 0xab2 <vTaskDelayUntil+0x38>
     aac:	82 17       	cp	r24, r18
     aae:	93 07       	cpc	r25, r19
     ab0:	30 f0       	brcs	.+12     	; 0xabe <vTaskDelayUntil+0x44>
     ab2:	21 e0       	ldi	r18, 0x01	; 1
     ab4:	48 17       	cp	r20, r24
     ab6:	59 07       	cpc	r21, r25
     ab8:	18 f0       	brcs	.+6      	; 0xac0 <vTaskDelayUntil+0x46>
     aba:	20 e0       	ldi	r18, 0x00	; 0
     abc:	01 c0       	rjmp	.+2      	; 0xac0 <vTaskDelayUntil+0x46>
     abe:	21 e0       	ldi	r18, 0x01	; 1
     ac0:	f8 01       	movw	r30, r16
     ac2:	91 83       	std	Z+1, r25	; 0x01
     ac4:	80 83       	st	Z, r24
     ac6:	22 23       	and	r18, r18
     ac8:	29 f0       	breq	.+10     	; 0xad4 <vTaskDelayUntil+0x5a>
     aca:	60 e0       	ldi	r22, 0x00	; 0
     acc:	84 1b       	sub	r24, r20
     ace:	95 0b       	sbc	r25, r21
     ad0:	0e 94 62 01 	call	0x2c4	; 0x2c4 <prvAddCurrentTaskToDelayedList>
     ad4:	0e 94 ce 04 	call	0x99c	; 0x99c <xTaskResumeAll>
     ad8:	81 11       	cpse	r24, r1
     ada:	02 c0       	rjmp	.+4      	; 0xae0 <vTaskDelayUntil+0x66>
     adc:	0e 94 d4 12 	call	0x25a8	; 0x25a8 <vPortYield>
     ae0:	df 91       	pop	r29
     ae2:	cf 91       	pop	r28
     ae4:	1f 91       	pop	r17
     ae6:	0f 91       	pop	r16
     ae8:	08 95       	ret

00000aea <vTaskDelay>:
     aea:	cf 93       	push	r28
     aec:	df 93       	push	r29
     aee:	ec 01       	movw	r28, r24
     af0:	89 2b       	or	r24, r25
     af2:	19 f4       	brne	.+6      	; 0xafa <vTaskDelay+0x10>
     af4:	0e 94 d4 12 	call	0x25a8	; 0x25a8 <vPortYield>
     af8:	0a c0       	rjmp	.+20     	; 0xb0e <vTaskDelay+0x24>
     afa:	0e 94 02 04 	call	0x804	; 0x804 <vTaskSuspendAll>
     afe:	60 e0       	ldi	r22, 0x00	; 0
     b00:	ce 01       	movw	r24, r28
     b02:	0e 94 62 01 	call	0x2c4	; 0x2c4 <prvAddCurrentTaskToDelayedList>
     b06:	0e 94 ce 04 	call	0x99c	; 0x99c <xTaskResumeAll>
     b0a:	88 23       	and	r24, r24
     b0c:	99 f3       	breq	.-26     	; 0xaf4 <vTaskDelay+0xa>
     b0e:	df 91       	pop	r29
     b10:	cf 91       	pop	r28
     b12:	08 95       	ret

00000b14 <vTaskSwitchContext>:
     b14:	80 91 3a 01 	lds	r24, 0x013A	; 0x80013a <uxSchedulerSuspended>
     b18:	88 23       	and	r24, r24
     b1a:	21 f0       	breq	.+8      	; 0xb24 <vTaskSwitchContext+0x10>
     b1c:	81 e0       	ldi	r24, 0x01	; 1
     b1e:	80 93 41 01 	sts	0x0141, r24	; 0x800141 <xYieldPending>
     b22:	08 95       	ret
     b24:	10 92 41 01 	sts	0x0141, r1	; 0x800141 <xYieldPending>
     b28:	80 91 44 01 	lds	r24, 0x0144	; 0x800144 <uxTopReadyPriority>
     b2c:	69 e0       	ldi	r22, 0x09	; 9
     b2e:	48 2f       	mov	r20, r24
     b30:	50 e0       	ldi	r21, 0x00	; 0
     b32:	64 9f       	mul	r22, r20
     b34:	90 01       	movw	r18, r0
     b36:	65 9f       	mul	r22, r21
     b38:	30 0d       	add	r19, r0
     b3a:	11 24       	eor	r1, r1
     b3c:	f9 01       	movw	r30, r18
     b3e:	e6 58       	subi	r30, 0x86	; 134
     b40:	fe 4f       	sbci	r31, 0xFE	; 254
     b42:	90 81       	ld	r25, Z
     b44:	91 11       	cpse	r25, r1
     b46:	02 c0       	rjmp	.+4      	; 0xb4c <vTaskSwitchContext+0x38>
     b48:	81 50       	subi	r24, 0x01	; 1
     b4a:	f1 cf       	rjmp	.-30     	; 0xb2e <vTaskSwitchContext+0x1a>
     b4c:	a1 81       	ldd	r26, Z+1	; 0x01
     b4e:	b2 81       	ldd	r27, Z+2	; 0x02
     b50:	12 96       	adiw	r26, 0x02	; 2
     b52:	0d 90       	ld	r0, X+
     b54:	bc 91       	ld	r27, X
     b56:	a0 2d       	mov	r26, r0
     b58:	b2 83       	std	Z+2, r27	; 0x02
     b5a:	a1 83       	std	Z+1, r26	; 0x01
     b5c:	23 58       	subi	r18, 0x83	; 131
     b5e:	3e 4f       	sbci	r19, 0xFE	; 254
     b60:	a2 17       	cp	r26, r18
     b62:	b3 07       	cpc	r27, r19
     b64:	31 f4       	brne	.+12     	; 0xb72 <vTaskSwitchContext+0x5e>
     b66:	12 96       	adiw	r26, 0x02	; 2
     b68:	2d 91       	ld	r18, X+
     b6a:	3c 91       	ld	r19, X
     b6c:	13 97       	sbiw	r26, 0x03	; 3
     b6e:	32 83       	std	Z+2, r19	; 0x02
     b70:	21 83       	std	Z+1, r18	; 0x01
     b72:	99 e0       	ldi	r25, 0x09	; 9
     b74:	94 9f       	mul	r25, r20
     b76:	f0 01       	movw	r30, r0
     b78:	95 9f       	mul	r25, r21
     b7a:	f0 0d       	add	r31, r0
     b7c:	11 24       	eor	r1, r1
     b7e:	e6 58       	subi	r30, 0x86	; 134
     b80:	fe 4f       	sbci	r31, 0xFE	; 254
     b82:	01 80       	ldd	r0, Z+1	; 0x01
     b84:	f2 81       	ldd	r31, Z+2	; 0x02
     b86:	e0 2d       	mov	r30, r0
     b88:	26 81       	ldd	r18, Z+6	; 0x06
     b8a:	37 81       	ldd	r19, Z+7	; 0x07
     b8c:	30 93 39 01 	sts	0x0139, r19	; 0x800139 <__data_end+0x1>
     b90:	20 93 38 01 	sts	0x0138, r18	; 0x800138 <__data_end>
     b94:	80 93 44 01 	sts	0x0144, r24	; 0x800144 <uxTopReadyPriority>
     b98:	08 95       	ret

00000b9a <vTaskSuspend>:
     b9a:	0f 93       	push	r16
     b9c:	1f 93       	push	r17
     b9e:	cf 93       	push	r28
     ba0:	df 93       	push	r29
     ba2:	ec 01       	movw	r28, r24
     ba4:	0f b6       	in	r0, 0x3f	; 63
     ba6:	f8 94       	cli
     ba8:	0f 92       	push	r0
     baa:	89 2b       	or	r24, r25
     bac:	21 f4       	brne	.+8      	; 0xbb6 <vTaskSuspend+0x1c>
     bae:	c0 91 38 01 	lds	r28, 0x0138	; 0x800138 <__data_end>
     bb2:	d0 91 39 01 	lds	r29, 0x0139	; 0x800139 <__data_end+0x1>
     bb6:	8e 01       	movw	r16, r28
     bb8:	0e 5f       	subi	r16, 0xFE	; 254
     bba:	1f 4f       	sbci	r17, 0xFF	; 255
     bbc:	c8 01       	movw	r24, r16
     bbe:	0e 94 fc 0f 	call	0x1ff8	; 0x1ff8 <uxListRemove>
     bc2:	8c 89       	ldd	r24, Y+20	; 0x14
     bc4:	9d 89       	ldd	r25, Y+21	; 0x15
     bc6:	89 2b       	or	r24, r25
     bc8:	21 f0       	breq	.+8      	; 0xbd2 <vTaskSuspend+0x38>
     bca:	ce 01       	movw	r24, r28
     bcc:	0c 96       	adiw	r24, 0x0c	; 12
     bce:	0e 94 fc 0f 	call	0x1ff8	; 0x1ff8 <uxListRemove>
     bd2:	b8 01       	movw	r22, r16
     bd4:	88 e4       	ldi	r24, 0x48	; 72
     bd6:	91 e0       	ldi	r25, 0x01	; 1
     bd8:	0e 94 a3 0f 	call	0x1f46	; 0x1f46 <vListInsertEnd>
     bdc:	8f a1       	ldd	r24, Y+39	; 0x27
     bde:	81 30       	cpi	r24, 0x01	; 1
     be0:	09 f4       	brne	.+2      	; 0xbe4 <vTaskSuspend+0x4a>
     be2:	1f a2       	std	Y+39, r1	; 0x27
     be4:	0f 90       	pop	r0
     be6:	0f be       	out	0x3f, r0	; 63
     be8:	80 91 43 01 	lds	r24, 0x0143	; 0x800143 <xSchedulerRunning>
     bec:	88 23       	and	r24, r24
     bee:	39 f0       	breq	.+14     	; 0xbfe <vTaskSuspend+0x64>
     bf0:	0f b6       	in	r0, 0x3f	; 63
     bf2:	f8 94       	cli
     bf4:	0f 92       	push	r0
     bf6:	0e 94 47 01 	call	0x28e	; 0x28e <prvResetNextTaskUnblockTime>
     bfa:	0f 90       	pop	r0
     bfc:	0f be       	out	0x3f, r0	; 63
     bfe:	80 91 38 01 	lds	r24, 0x0138	; 0x800138 <__data_end>
     c02:	90 91 39 01 	lds	r25, 0x0139	; 0x800139 <__data_end+0x1>
     c06:	c8 17       	cp	r28, r24
     c08:	d9 07       	cpc	r29, r25
     c0a:	c1 f4       	brne	.+48     	; 0xc3c <vTaskSuspend+0xa2>
     c0c:	80 91 43 01 	lds	r24, 0x0143	; 0x800143 <xSchedulerRunning>
     c10:	88 23       	and	r24, r24
     c12:	19 f0       	breq	.+6      	; 0xc1a <vTaskSuspend+0x80>
     c14:	0e 94 d4 12 	call	0x25a8	; 0x25a8 <vPortYield>
     c18:	11 c0       	rjmp	.+34     	; 0xc3c <vTaskSuspend+0xa2>
     c1a:	90 91 48 01 	lds	r25, 0x0148	; 0x800148 <xSuspendedTaskList>
     c1e:	80 91 47 01 	lds	r24, 0x0147	; 0x800147 <uxCurrentNumberOfTasks>
     c22:	98 13       	cpse	r25, r24
     c24:	05 c0       	rjmp	.+10     	; 0xc30 <vTaskSuspend+0x96>
     c26:	10 92 39 01 	sts	0x0139, r1	; 0x800139 <__data_end+0x1>
     c2a:	10 92 38 01 	sts	0x0138, r1	; 0x800138 <__data_end>
     c2e:	06 c0       	rjmp	.+12     	; 0xc3c <vTaskSuspend+0xa2>
     c30:	df 91       	pop	r29
     c32:	cf 91       	pop	r28
     c34:	1f 91       	pop	r17
     c36:	0f 91       	pop	r16
     c38:	0c 94 8a 05 	jmp	0xb14	; 0xb14 <vTaskSwitchContext>
     c3c:	df 91       	pop	r29
     c3e:	cf 91       	pop	r28
     c40:	1f 91       	pop	r17
     c42:	0f 91       	pop	r16
     c44:	08 95       	ret

00000c46 <vTaskPlaceOnEventList>:
     c46:	cf 93       	push	r28
     c48:	df 93       	push	r29
     c4a:	eb 01       	movw	r28, r22
     c4c:	60 91 38 01 	lds	r22, 0x0138	; 0x800138 <__data_end>
     c50:	70 91 39 01 	lds	r23, 0x0139	; 0x800139 <__data_end+0x1>
     c54:	64 5f       	subi	r22, 0xF4	; 244
     c56:	7f 4f       	sbci	r23, 0xFF	; 255
     c58:	0e 94 c4 0f 	call	0x1f88	; 0x1f88 <vListInsert>
     c5c:	61 e0       	ldi	r22, 0x01	; 1
     c5e:	ce 01       	movw	r24, r28
     c60:	df 91       	pop	r29
     c62:	cf 91       	pop	r28
     c64:	0c 94 62 01 	jmp	0x2c4	; 0x2c4 <prvAddCurrentTaskToDelayedList>

00000c68 <vTaskPlaceOnUnorderedEventList>:
     c68:	cf 93       	push	r28
     c6a:	df 93       	push	r29
     c6c:	ea 01       	movw	r28, r20
     c6e:	e0 91 38 01 	lds	r30, 0x0138	; 0x800138 <__data_end>
     c72:	f0 91 39 01 	lds	r31, 0x0139	; 0x800139 <__data_end+0x1>
     c76:	70 68       	ori	r23, 0x80	; 128
     c78:	75 87       	std	Z+13, r23	; 0x0d
     c7a:	64 87       	std	Z+12, r22	; 0x0c
     c7c:	60 91 38 01 	lds	r22, 0x0138	; 0x800138 <__data_end>
     c80:	70 91 39 01 	lds	r23, 0x0139	; 0x800139 <__data_end+0x1>
     c84:	64 5f       	subi	r22, 0xF4	; 244
     c86:	7f 4f       	sbci	r23, 0xFF	; 255
     c88:	0e 94 a3 0f 	call	0x1f46	; 0x1f46 <vListInsertEnd>
     c8c:	61 e0       	ldi	r22, 0x01	; 1
     c8e:	ce 01       	movw	r24, r28
     c90:	df 91       	pop	r29
     c92:	cf 91       	pop	r28
     c94:	0c 94 62 01 	jmp	0x2c4	; 0x2c4 <prvAddCurrentTaskToDelayedList>

00000c98 <xTaskRemoveFromEventList>:
     c98:	0f 93       	push	r16
     c9a:	1f 93       	push	r17
     c9c:	cf 93       	push	r28
     c9e:	df 93       	push	r29
     ca0:	dc 01       	movw	r26, r24
     ca2:	15 96       	adiw	r26, 0x05	; 5
     ca4:	ed 91       	ld	r30, X+
     ca6:	fc 91       	ld	r31, X
     ca8:	16 97       	sbiw	r26, 0x06	; 6
     caa:	c6 81       	ldd	r28, Z+6	; 0x06
     cac:	d7 81       	ldd	r29, Z+7	; 0x07
     cae:	8e 01       	movw	r16, r28
     cb0:	04 5f       	subi	r16, 0xF4	; 244
     cb2:	1f 4f       	sbci	r17, 0xFF	; 255
     cb4:	c8 01       	movw	r24, r16
     cb6:	0e 94 fc 0f 	call	0x1ff8	; 0x1ff8 <uxListRemove>
     cba:	80 91 3a 01 	lds	r24, 0x013A	; 0x80013a <uxSchedulerSuspended>
     cbe:	81 11       	cpse	r24, r1
     cc0:	14 c0       	rjmp	.+40     	; 0xcea <xTaskRemoveFromEventList+0x52>
     cc2:	0a 50       	subi	r16, 0x0A	; 10
     cc4:	11 09       	sbc	r17, r1
     cc6:	c8 01       	movw	r24, r16
     cc8:	0e 94 fc 0f 	call	0x1ff8	; 0x1ff8 <uxListRemove>
     ccc:	8e 89       	ldd	r24, Y+22	; 0x16
     cce:	90 91 44 01 	lds	r25, 0x0144	; 0x800144 <uxTopReadyPriority>
     cd2:	98 17       	cp	r25, r24
     cd4:	10 f4       	brcc	.+4      	; 0xcda <xTaskRemoveFromEventList+0x42>
     cd6:	80 93 44 01 	sts	0x0144, r24	; 0x800144 <uxTopReadyPriority>
     cda:	b9 e0       	ldi	r27, 0x09	; 9
     cdc:	8b 9f       	mul	r24, r27
     cde:	c0 01       	movw	r24, r0
     ce0:	11 24       	eor	r1, r1
     ce2:	b8 01       	movw	r22, r16
     ce4:	86 58       	subi	r24, 0x86	; 134
     ce6:	9e 4f       	sbci	r25, 0xFE	; 254
     ce8:	03 c0       	rjmp	.+6      	; 0xcf0 <xTaskRemoveFromEventList+0x58>
     cea:	b8 01       	movw	r22, r16
     cec:	8b e5       	ldi	r24, 0x5B	; 91
     cee:	91 e0       	ldi	r25, 0x01	; 1
     cf0:	0e 94 a3 0f 	call	0x1f46	; 0x1f46 <vListInsertEnd>
     cf4:	e0 91 38 01 	lds	r30, 0x0138	; 0x800138 <__data_end>
     cf8:	f0 91 39 01 	lds	r31, 0x0139	; 0x800139 <__data_end+0x1>
     cfc:	9e 89       	ldd	r25, Y+22	; 0x16
     cfe:	86 89       	ldd	r24, Z+22	; 0x16
     d00:	89 17       	cp	r24, r25
     d02:	20 f4       	brcc	.+8      	; 0xd0c <xTaskRemoveFromEventList+0x74>
     d04:	81 e0       	ldi	r24, 0x01	; 1
     d06:	80 93 41 01 	sts	0x0141, r24	; 0x800141 <xYieldPending>
     d0a:	01 c0       	rjmp	.+2      	; 0xd0e <xTaskRemoveFromEventList+0x76>
     d0c:	80 e0       	ldi	r24, 0x00	; 0
     d0e:	df 91       	pop	r29
     d10:	cf 91       	pop	r28
     d12:	1f 91       	pop	r17
     d14:	0f 91       	pop	r16
     d16:	08 95       	ret

00000d18 <vTaskRemoveFromUnorderedEventList>:
     d18:	0f 93       	push	r16
     d1a:	1f 93       	push	r17
     d1c:	cf 93       	push	r28
     d1e:	df 93       	push	r29
     d20:	70 68       	ori	r23, 0x80	; 128
     d22:	fc 01       	movw	r30, r24
     d24:	71 83       	std	Z+1, r23	; 0x01
     d26:	60 83       	st	Z, r22
     d28:	c6 81       	ldd	r28, Z+6	; 0x06
     d2a:	d7 81       	ldd	r29, Z+7	; 0x07
     d2c:	0e 94 fc 0f 	call	0x1ff8	; 0x1ff8 <uxListRemove>
     d30:	8e 01       	movw	r16, r28
     d32:	0e 5f       	subi	r16, 0xFE	; 254
     d34:	1f 4f       	sbci	r17, 0xFF	; 255
     d36:	c8 01       	movw	r24, r16
     d38:	0e 94 fc 0f 	call	0x1ff8	; 0x1ff8 <uxListRemove>
     d3c:	8e 89       	ldd	r24, Y+22	; 0x16
     d3e:	90 91 44 01 	lds	r25, 0x0144	; 0x800144 <uxTopReadyPriority>
     d42:	98 17       	cp	r25, r24
     d44:	10 f4       	brcc	.+4      	; 0xd4a <vTaskRemoveFromUnorderedEventList+0x32>
     d46:	80 93 44 01 	sts	0x0144, r24	; 0x800144 <uxTopReadyPriority>
     d4a:	f9 e0       	ldi	r31, 0x09	; 9
     d4c:	8f 9f       	mul	r24, r31
     d4e:	c0 01       	movw	r24, r0
     d50:	11 24       	eor	r1, r1
     d52:	b8 01       	movw	r22, r16
     d54:	86 58       	subi	r24, 0x86	; 134
     d56:	9e 4f       	sbci	r25, 0xFE	; 254
     d58:	0e 94 a3 0f 	call	0x1f46	; 0x1f46 <vListInsertEnd>
     d5c:	e0 91 38 01 	lds	r30, 0x0138	; 0x800138 <__data_end>
     d60:	f0 91 39 01 	lds	r31, 0x0139	; 0x800139 <__data_end+0x1>
     d64:	9e 89       	ldd	r25, Y+22	; 0x16
     d66:	86 89       	ldd	r24, Z+22	; 0x16
     d68:	89 17       	cp	r24, r25
     d6a:	18 f4       	brcc	.+6      	; 0xd72 <vTaskRemoveFromUnorderedEventList+0x5a>
     d6c:	81 e0       	ldi	r24, 0x01	; 1
     d6e:	80 93 41 01 	sts	0x0141, r24	; 0x800141 <xYieldPending>
     d72:	df 91       	pop	r29
     d74:	cf 91       	pop	r28
     d76:	1f 91       	pop	r17
     d78:	0f 91       	pop	r16
     d7a:	08 95       	ret

00000d7c <vTaskSetTimeOutState>:
     d7c:	0f b6       	in	r0, 0x3f	; 63
     d7e:	f8 94       	cli
     d80:	0f 92       	push	r0
     d82:	20 91 40 01 	lds	r18, 0x0140	; 0x800140 <xNumOfOverflows>
     d86:	fc 01       	movw	r30, r24
     d88:	20 83       	st	Z, r18
     d8a:	20 91 45 01 	lds	r18, 0x0145	; 0x800145 <xTickCount>
     d8e:	30 91 46 01 	lds	r19, 0x0146	; 0x800146 <xTickCount+0x1>
     d92:	32 83       	std	Z+2, r19	; 0x02
     d94:	21 83       	std	Z+1, r18	; 0x01
     d96:	0f 90       	pop	r0
     d98:	0f be       	out	0x3f, r0	; 63
     d9a:	08 95       	ret

00000d9c <vTaskInternalSetTimeOutState>:
     d9c:	20 91 40 01 	lds	r18, 0x0140	; 0x800140 <xNumOfOverflows>
     da0:	fc 01       	movw	r30, r24
     da2:	20 83       	st	Z, r18
     da4:	20 91 45 01 	lds	r18, 0x0145	; 0x800145 <xTickCount>
     da8:	30 91 46 01 	lds	r19, 0x0146	; 0x800146 <xTickCount+0x1>
     dac:	32 83       	std	Z+2, r19	; 0x02
     dae:	21 83       	std	Z+1, r18	; 0x01
     db0:	08 95       	ret

00000db2 <xTaskCheckForTimeOut>:
     db2:	cf 93       	push	r28
     db4:	df 93       	push	r29
     db6:	0f b6       	in	r0, 0x3f	; 63
     db8:	f8 94       	cli
     dba:	0f 92       	push	r0
     dbc:	40 91 45 01 	lds	r20, 0x0145	; 0x800145 <xTickCount>
     dc0:	50 91 46 01 	lds	r21, 0x0146	; 0x800146 <xTickCount+0x1>
     dc4:	db 01       	movw	r26, r22
     dc6:	2d 91       	ld	r18, X+
     dc8:	3c 91       	ld	r19, X
     dca:	2f 3f       	cpi	r18, 0xFF	; 255
     dcc:	bf ef       	ldi	r27, 0xFF	; 255
     dce:	3b 07       	cpc	r19, r27
     dd0:	d9 f0       	breq	.+54     	; 0xe08 <xTaskCheckForTimeOut+0x56>
     dd2:	ec 01       	movw	r28, r24
     dd4:	e9 81       	ldd	r30, Y+1	; 0x01
     dd6:	fa 81       	ldd	r31, Y+2	; 0x02
     dd8:	a0 91 40 01 	lds	r26, 0x0140	; 0x800140 <xNumOfOverflows>
     ddc:	b8 81       	ld	r27, Y
     dde:	ba 17       	cp	r27, r26
     de0:	19 f0       	breq	.+6      	; 0xde8 <xTaskCheckForTimeOut+0x36>
     de2:	4e 17       	cp	r20, r30
     de4:	5f 07       	cpc	r21, r31
     de6:	90 f4       	brcc	.+36     	; 0xe0c <xTaskCheckForTimeOut+0x5a>
     de8:	4e 1b       	sub	r20, r30
     dea:	5f 0b       	sbc	r21, r31
     dec:	fb 01       	movw	r30, r22
     dee:	42 17       	cp	r20, r18
     df0:	53 07       	cpc	r21, r19
     df2:	38 f4       	brcc	.+14     	; 0xe02 <xTaskCheckForTimeOut+0x50>
     df4:	24 1b       	sub	r18, r20
     df6:	35 0b       	sbc	r19, r21
     df8:	31 83       	std	Z+1, r19	; 0x01
     dfa:	20 83       	st	Z, r18
     dfc:	0e 94 ce 06 	call	0xd9c	; 0xd9c <vTaskInternalSetTimeOutState>
     e00:	03 c0       	rjmp	.+6      	; 0xe08 <xTaskCheckForTimeOut+0x56>
     e02:	11 82       	std	Z+1, r1	; 0x01
     e04:	10 82       	st	Z, r1
     e06:	02 c0       	rjmp	.+4      	; 0xe0c <xTaskCheckForTimeOut+0x5a>
     e08:	80 e0       	ldi	r24, 0x00	; 0
     e0a:	01 c0       	rjmp	.+2      	; 0xe0e <xTaskCheckForTimeOut+0x5c>
     e0c:	81 e0       	ldi	r24, 0x01	; 1
     e0e:	0f 90       	pop	r0
     e10:	0f be       	out	0x3f, r0	; 63
     e12:	df 91       	pop	r29
     e14:	cf 91       	pop	r28
     e16:	08 95       	ret

00000e18 <vTaskMissedYield>:
     e18:	81 e0       	ldi	r24, 0x01	; 1
     e1a:	80 93 41 01 	sts	0x0141, r24	; 0x800141 <xYieldPending>
     e1e:	08 95       	ret

00000e20 <xTaskGetCurrentTaskHandle>:
     e20:	80 91 38 01 	lds	r24, 0x0138	; 0x800138 <__data_end>
     e24:	90 91 39 01 	lds	r25, 0x0139	; 0x800139 <__data_end+0x1>
     e28:	08 95       	ret

00000e2a <xTaskPriorityInherit>:
     e2a:	0f 93       	push	r16
     e2c:	1f 93       	push	r17
     e2e:	cf 93       	push	r28
     e30:	df 93       	push	r29
     e32:	fc 01       	movw	r30, r24
     e34:	89 2b       	or	r24, r25
     e36:	09 f4       	brne	.+2      	; 0xe3a <xTaskPriorityInherit+0x10>
     e38:	55 c0       	rjmp	.+170    	; 0xee4 <xTaskPriorityInherit+0xba>
     e3a:	86 89       	ldd	r24, Z+22	; 0x16
     e3c:	a0 91 38 01 	lds	r26, 0x0138	; 0x800138 <__data_end>
     e40:	b0 91 39 01 	lds	r27, 0x0139	; 0x800139 <__data_end+0x1>
     e44:	56 96       	adiw	r26, 0x16	; 22
     e46:	9c 91       	ld	r25, X
     e48:	89 17       	cp	r24, r25
     e4a:	08 f0       	brcs	.+2      	; 0xe4e <xTaskPriorityInherit+0x24>
     e4c:	41 c0       	rjmp	.+130    	; 0xed0 <xTaskPriorityInherit+0xa6>
     e4e:	24 85       	ldd	r18, Z+12	; 0x0c
     e50:	35 85       	ldd	r19, Z+13	; 0x0d
     e52:	37 fd       	sbrc	r19, 7
     e54:	0c c0       	rjmp	.+24     	; 0xe6e <xTaskPriorityInherit+0x44>
     e56:	a0 91 38 01 	lds	r26, 0x0138	; 0x800138 <__data_end>
     e5a:	b0 91 39 01 	lds	r27, 0x0139	; 0x800139 <__data_end+0x1>
     e5e:	56 96       	adiw	r26, 0x16	; 22
     e60:	9c 91       	ld	r25, X
     e62:	24 e0       	ldi	r18, 0x04	; 4
     e64:	30 e0       	ldi	r19, 0x00	; 0
     e66:	29 1b       	sub	r18, r25
     e68:	31 09       	sbc	r19, r1
     e6a:	35 87       	std	Z+13, r19	; 0x0d
     e6c:	24 87       	std	Z+12, r18	; 0x0c
     e6e:	29 e0       	ldi	r18, 0x09	; 9
     e70:	82 9f       	mul	r24, r18
     e72:	c0 01       	movw	r24, r0
     e74:	11 24       	eor	r1, r1
     e76:	86 58       	subi	r24, 0x86	; 134
     e78:	9e 4f       	sbci	r25, 0xFE	; 254
     e7a:	22 85       	ldd	r18, Z+10	; 0x0a
     e7c:	33 85       	ldd	r19, Z+11	; 0x0b
     e7e:	28 17       	cp	r18, r24
     e80:	39 07       	cpc	r19, r25
     e82:	e9 f4       	brne	.+58     	; 0xebe <xTaskPriorityInherit+0x94>
     e84:	8f 01       	movw	r16, r30
     e86:	ef 01       	movw	r28, r30
     e88:	22 96       	adiw	r28, 0x02	; 2
     e8a:	ce 01       	movw	r24, r28
     e8c:	0e 94 fc 0f 	call	0x1ff8	; 0x1ff8 <uxListRemove>
     e90:	e0 91 38 01 	lds	r30, 0x0138	; 0x800138 <__data_end>
     e94:	f0 91 39 01 	lds	r31, 0x0139	; 0x800139 <__data_end+0x1>
     e98:	86 89       	ldd	r24, Z+22	; 0x16
     e9a:	f8 01       	movw	r30, r16
     e9c:	86 8b       	std	Z+22, r24	; 0x16
     e9e:	90 91 44 01 	lds	r25, 0x0144	; 0x800144 <uxTopReadyPriority>
     ea2:	98 17       	cp	r25, r24
     ea4:	10 f4       	brcc	.+4      	; 0xeaa <xTaskPriorityInherit+0x80>
     ea6:	80 93 44 01 	sts	0x0144, r24	; 0x800144 <uxTopReadyPriority>
     eaa:	f9 e0       	ldi	r31, 0x09	; 9
     eac:	8f 9f       	mul	r24, r31
     eae:	c0 01       	movw	r24, r0
     eb0:	11 24       	eor	r1, r1
     eb2:	be 01       	movw	r22, r28
     eb4:	86 58       	subi	r24, 0x86	; 134
     eb6:	9e 4f       	sbci	r25, 0xFE	; 254
     eb8:	0e 94 a3 0f 	call	0x1f46	; 0x1f46 <vListInsertEnd>
     ebc:	07 c0       	rjmp	.+14     	; 0xecc <xTaskPriorityInherit+0xa2>
     ebe:	a0 91 38 01 	lds	r26, 0x0138	; 0x800138 <__data_end>
     ec2:	b0 91 39 01 	lds	r27, 0x0139	; 0x800139 <__data_end+0x1>
     ec6:	56 96       	adiw	r26, 0x16	; 22
     ec8:	8c 91       	ld	r24, X
     eca:	86 8b       	std	Z+22, r24	; 0x16
     ecc:	81 e0       	ldi	r24, 0x01	; 1
     ece:	0b c0       	rjmp	.+22     	; 0xee6 <xTaskPriorityInherit+0xbc>
     ed0:	a0 91 38 01 	lds	r26, 0x0138	; 0x800138 <__data_end>
     ed4:	b0 91 39 01 	lds	r27, 0x0139	; 0x800139 <__data_end+0x1>
     ed8:	81 e0       	ldi	r24, 0x01	; 1
     eda:	21 a1       	ldd	r18, Z+33	; 0x21
     edc:	56 96       	adiw	r26, 0x16	; 22
     ede:	9c 91       	ld	r25, X
     ee0:	29 17       	cp	r18, r25
     ee2:	08 f0       	brcs	.+2      	; 0xee6 <xTaskPriorityInherit+0xbc>
     ee4:	80 e0       	ldi	r24, 0x00	; 0
     ee6:	df 91       	pop	r29
     ee8:	cf 91       	pop	r28
     eea:	1f 91       	pop	r17
     eec:	0f 91       	pop	r16
     eee:	08 95       	ret

00000ef0 <xTaskPriorityDisinherit>:
     ef0:	0f 93       	push	r16
     ef2:	1f 93       	push	r17
     ef4:	cf 93       	push	r28
     ef6:	df 93       	push	r29
     ef8:	fc 01       	movw	r30, r24
     efa:	89 2b       	or	r24, r25
     efc:	11 f4       	brne	.+4      	; 0xf02 <xTaskPriorityDisinherit+0x12>
     efe:	80 e0       	ldi	r24, 0x00	; 0
     f00:	2c c0       	rjmp	.+88     	; 0xf5a <xTaskPriorityDisinherit+0x6a>
     f02:	82 a1       	ldd	r24, Z+34	; 0x22
     f04:	81 50       	subi	r24, 0x01	; 1
     f06:	82 a3       	std	Z+34, r24	; 0x22
     f08:	26 89       	ldd	r18, Z+22	; 0x16
     f0a:	91 a1       	ldd	r25, Z+33	; 0x21
     f0c:	29 17       	cp	r18, r25
     f0e:	b9 f3       	breq	.-18     	; 0xefe <xTaskPriorityDisinherit+0xe>
     f10:	81 11       	cpse	r24, r1
     f12:	f5 cf       	rjmp	.-22     	; 0xefe <xTaskPriorityDisinherit+0xe>
     f14:	ef 01       	movw	r28, r30
     f16:	8f 01       	movw	r16, r30
     f18:	0e 5f       	subi	r16, 0xFE	; 254
     f1a:	1f 4f       	sbci	r17, 0xFF	; 255
     f1c:	c8 01       	movw	r24, r16
     f1e:	0e 94 fc 0f 	call	0x1ff8	; 0x1ff8 <uxListRemove>
     f22:	89 a1       	ldd	r24, Y+33	; 0x21
     f24:	8e 8b       	std	Y+22, r24	; 0x16
     f26:	48 2f       	mov	r20, r24
     f28:	50 e0       	ldi	r21, 0x00	; 0
     f2a:	24 e0       	ldi	r18, 0x04	; 4
     f2c:	30 e0       	ldi	r19, 0x00	; 0
     f2e:	24 1b       	sub	r18, r20
     f30:	35 0b       	sbc	r19, r21
     f32:	3d 87       	std	Y+13, r19	; 0x0d
     f34:	2c 87       	std	Y+12, r18	; 0x0c
     f36:	90 91 44 01 	lds	r25, 0x0144	; 0x800144 <uxTopReadyPriority>
     f3a:	98 17       	cp	r25, r24
     f3c:	10 f4       	brcc	.+4      	; 0xf42 <xTaskPriorityDisinherit+0x52>
     f3e:	80 93 44 01 	sts	0x0144, r24	; 0x800144 <uxTopReadyPriority>
     f42:	29 e0       	ldi	r18, 0x09	; 9
     f44:	24 9f       	mul	r18, r20
     f46:	c0 01       	movw	r24, r0
     f48:	25 9f       	mul	r18, r21
     f4a:	90 0d       	add	r25, r0
     f4c:	11 24       	eor	r1, r1
     f4e:	b8 01       	movw	r22, r16
     f50:	86 58       	subi	r24, 0x86	; 134
     f52:	9e 4f       	sbci	r25, 0xFE	; 254
     f54:	0e 94 a3 0f 	call	0x1f46	; 0x1f46 <vListInsertEnd>
     f58:	81 e0       	ldi	r24, 0x01	; 1
     f5a:	df 91       	pop	r29
     f5c:	cf 91       	pop	r28
     f5e:	1f 91       	pop	r17
     f60:	0f 91       	pop	r16
     f62:	08 95       	ret

00000f64 <vTaskPriorityDisinheritAfterTimeout>:
     f64:	0f 93       	push	r16
     f66:	1f 93       	push	r17
     f68:	cf 93       	push	r28
     f6a:	df 93       	push	r29
     f6c:	fc 01       	movw	r30, r24
     f6e:	89 2b       	or	r24, r25
     f70:	d9 f1       	breq	.+118    	; 0xfe8 <vTaskPriorityDisinheritAfterTimeout+0x84>
     f72:	91 a1       	ldd	r25, Z+33	; 0x21
     f74:	96 17       	cp	r25, r22
     f76:	08 f4       	brcc	.+2      	; 0xf7a <vTaskPriorityDisinheritAfterTimeout+0x16>
     f78:	96 2f       	mov	r25, r22
     f7a:	86 89       	ldd	r24, Z+22	; 0x16
     f7c:	89 17       	cp	r24, r25
     f7e:	a1 f1       	breq	.+104    	; 0xfe8 <vTaskPriorityDisinheritAfterTimeout+0x84>
     f80:	22 a1       	ldd	r18, Z+34	; 0x22
     f82:	21 30       	cpi	r18, 0x01	; 1
     f84:	89 f5       	brne	.+98     	; 0xfe8 <vTaskPriorityDisinheritAfterTimeout+0x84>
     f86:	96 8b       	std	Z+22, r25	; 0x16
     f88:	24 85       	ldd	r18, Z+12	; 0x0c
     f8a:	35 85       	ldd	r19, Z+13	; 0x0d
     f8c:	37 fd       	sbrc	r19, 7
     f8e:	06 c0       	rjmp	.+12     	; 0xf9c <vTaskPriorityDisinheritAfterTimeout+0x38>
     f90:	24 e0       	ldi	r18, 0x04	; 4
     f92:	30 e0       	ldi	r19, 0x00	; 0
     f94:	29 1b       	sub	r18, r25
     f96:	31 09       	sbc	r19, r1
     f98:	35 87       	std	Z+13, r19	; 0x0d
     f9a:	24 87       	std	Z+12, r18	; 0x0c
     f9c:	29 e0       	ldi	r18, 0x09	; 9
     f9e:	82 9f       	mul	r24, r18
     fa0:	c0 01       	movw	r24, r0
     fa2:	11 24       	eor	r1, r1
     fa4:	86 58       	subi	r24, 0x86	; 134
     fa6:	9e 4f       	sbci	r25, 0xFE	; 254
     fa8:	22 85       	ldd	r18, Z+10	; 0x0a
     faa:	33 85       	ldd	r19, Z+11	; 0x0b
     fac:	28 17       	cp	r18, r24
     fae:	39 07       	cpc	r19, r25
     fb0:	d9 f4       	brne	.+54     	; 0xfe8 <vTaskPriorityDisinheritAfterTimeout+0x84>
     fb2:	ef 01       	movw	r28, r30
     fb4:	8f 01       	movw	r16, r30
     fb6:	0e 5f       	subi	r16, 0xFE	; 254
     fb8:	1f 4f       	sbci	r17, 0xFF	; 255
     fba:	c8 01       	movw	r24, r16
     fbc:	0e 94 fc 0f 	call	0x1ff8	; 0x1ff8 <uxListRemove>
     fc0:	8e 89       	ldd	r24, Y+22	; 0x16
     fc2:	90 91 44 01 	lds	r25, 0x0144	; 0x800144 <uxTopReadyPriority>
     fc6:	98 17       	cp	r25, r24
     fc8:	10 f4       	brcc	.+4      	; 0xfce <vTaskPriorityDisinheritAfterTimeout+0x6a>
     fca:	80 93 44 01 	sts	0x0144, r24	; 0x800144 <uxTopReadyPriority>
     fce:	29 e0       	ldi	r18, 0x09	; 9
     fd0:	82 9f       	mul	r24, r18
     fd2:	c0 01       	movw	r24, r0
     fd4:	11 24       	eor	r1, r1
     fd6:	b8 01       	movw	r22, r16
     fd8:	86 58       	subi	r24, 0x86	; 134
     fda:	9e 4f       	sbci	r25, 0xFE	; 254
     fdc:	df 91       	pop	r29
     fde:	cf 91       	pop	r28
     fe0:	1f 91       	pop	r17
     fe2:	0f 91       	pop	r16
     fe4:	0c 94 a3 0f 	jmp	0x1f46	; 0x1f46 <vListInsertEnd>
     fe8:	df 91       	pop	r29
     fea:	cf 91       	pop	r28
     fec:	1f 91       	pop	r17
     fee:	0f 91       	pop	r16
     ff0:	08 95       	ret

00000ff2 <uxTaskResetEventItemValue>:
     ff2:	e0 91 38 01 	lds	r30, 0x0138	; 0x800138 <__data_end>
     ff6:	f0 91 39 01 	lds	r31, 0x0139	; 0x800139 <__data_end+0x1>
     ffa:	84 85       	ldd	r24, Z+12	; 0x0c
     ffc:	95 85       	ldd	r25, Z+13	; 0x0d
     ffe:	e0 91 38 01 	lds	r30, 0x0138	; 0x800138 <__data_end>
    1002:	f0 91 39 01 	lds	r31, 0x0139	; 0x800139 <__data_end+0x1>
    1006:	a0 91 38 01 	lds	r26, 0x0138	; 0x800138 <__data_end>
    100a:	b0 91 39 01 	lds	r27, 0x0139	; 0x800139 <__data_end+0x1>
    100e:	56 96       	adiw	r26, 0x16	; 22
    1010:	4c 91       	ld	r20, X
    1012:	24 e0       	ldi	r18, 0x04	; 4
    1014:	30 e0       	ldi	r19, 0x00	; 0
    1016:	24 1b       	sub	r18, r20
    1018:	31 09       	sbc	r19, r1
    101a:	35 87       	std	Z+13, r19	; 0x0d
    101c:	24 87       	std	Z+12, r18	; 0x0c
    101e:	08 95       	ret

00001020 <pvTaskIncrementMutexHeldCount>:
    1020:	80 91 38 01 	lds	r24, 0x0138	; 0x800138 <__data_end>
    1024:	90 91 39 01 	lds	r25, 0x0139	; 0x800139 <__data_end+0x1>
    1028:	89 2b       	or	r24, r25
    102a:	39 f0       	breq	.+14     	; 0x103a <pvTaskIncrementMutexHeldCount+0x1a>
    102c:	e0 91 38 01 	lds	r30, 0x0138	; 0x800138 <__data_end>
    1030:	f0 91 39 01 	lds	r31, 0x0139	; 0x800139 <__data_end+0x1>
    1034:	82 a1       	ldd	r24, Z+34	; 0x22
    1036:	8f 5f       	subi	r24, 0xFF	; 255
    1038:	82 a3       	std	Z+34, r24	; 0x22
    103a:	80 91 38 01 	lds	r24, 0x0138	; 0x800138 <__data_end>
    103e:	90 91 39 01 	lds	r25, 0x0139	; 0x800139 <__data_end+0x1>
    1042:	08 95       	ret

00001044 <ulTaskNotifyTake>:
    1044:	0f 93       	push	r16
    1046:	1f 93       	push	r17
    1048:	18 2f       	mov	r17, r24
    104a:	cb 01       	movw	r24, r22
    104c:	0f b6       	in	r0, 0x3f	; 63
    104e:	f8 94       	cli
    1050:	0f 92       	push	r0
    1052:	e0 91 38 01 	lds	r30, 0x0138	; 0x800138 <__data_end>
    1056:	f0 91 39 01 	lds	r31, 0x0139	; 0x800139 <__data_end+0x1>
    105a:	43 a1       	ldd	r20, Z+35	; 0x23
    105c:	54 a1       	ldd	r21, Z+36	; 0x24
    105e:	65 a1       	ldd	r22, Z+37	; 0x25
    1060:	76 a1       	ldd	r23, Z+38	; 0x26
    1062:	45 2b       	or	r20, r21
    1064:	46 2b       	or	r20, r22
    1066:	47 2b       	or	r20, r23
    1068:	69 f4       	brne	.+26     	; 0x1084 <ulTaskNotifyTake+0x40>
    106a:	e0 91 38 01 	lds	r30, 0x0138	; 0x800138 <__data_end>
    106e:	f0 91 39 01 	lds	r31, 0x0139	; 0x800139 <__data_end+0x1>
    1072:	21 e0       	ldi	r18, 0x01	; 1
    1074:	27 a3       	std	Z+39, r18	; 0x27
    1076:	00 97       	sbiw	r24, 0x00	; 0
    1078:	29 f0       	breq	.+10     	; 0x1084 <ulTaskNotifyTake+0x40>
    107a:	61 e0       	ldi	r22, 0x01	; 1
    107c:	0e 94 62 01 	call	0x2c4	; 0x2c4 <prvAddCurrentTaskToDelayedList>
    1080:	0e 94 d4 12 	call	0x25a8	; 0x25a8 <vPortYield>
    1084:	0f 90       	pop	r0
    1086:	0f be       	out	0x3f, r0	; 63
    1088:	0f b6       	in	r0, 0x3f	; 63
    108a:	f8 94       	cli
    108c:	0f 92       	push	r0
    108e:	e0 91 38 01 	lds	r30, 0x0138	; 0x800138 <__data_end>
    1092:	f0 91 39 01 	lds	r31, 0x0139	; 0x800139 <__data_end+0x1>
    1096:	63 a1       	ldd	r22, Z+35	; 0x23
    1098:	74 a1       	ldd	r23, Z+36	; 0x24
    109a:	85 a1       	ldd	r24, Z+37	; 0x25
    109c:	96 a1       	ldd	r25, Z+38	; 0x26
    109e:	61 15       	cp	r22, r1
    10a0:	71 05       	cpc	r23, r1
    10a2:	81 05       	cpc	r24, r1
    10a4:	91 05       	cpc	r25, r1
    10a6:	a9 f0       	breq	.+42     	; 0x10d2 <ulTaskNotifyTake+0x8e>
    10a8:	e0 91 38 01 	lds	r30, 0x0138	; 0x800138 <__data_end>
    10ac:	f0 91 39 01 	lds	r31, 0x0139	; 0x800139 <__data_end+0x1>
    10b0:	11 23       	and	r17, r17
    10b2:	29 f0       	breq	.+10     	; 0x10be <ulTaskNotifyTake+0x7a>
    10b4:	13 a2       	std	Z+35, r1	; 0x23
    10b6:	14 a2       	std	Z+36, r1	; 0x24
    10b8:	15 a2       	std	Z+37, r1	; 0x25
    10ba:	16 a2       	std	Z+38, r1	; 0x26
    10bc:	0a c0       	rjmp	.+20     	; 0x10d2 <ulTaskNotifyTake+0x8e>
    10be:	8b 01       	movw	r16, r22
    10c0:	9c 01       	movw	r18, r24
    10c2:	01 50       	subi	r16, 0x01	; 1
    10c4:	11 09       	sbc	r17, r1
    10c6:	21 09       	sbc	r18, r1
    10c8:	31 09       	sbc	r19, r1
    10ca:	03 a3       	std	Z+35, r16	; 0x23
    10cc:	14 a3       	std	Z+36, r17	; 0x24
    10ce:	25 a3       	std	Z+37, r18	; 0x25
    10d0:	36 a3       	std	Z+38, r19	; 0x26
    10d2:	e0 91 38 01 	lds	r30, 0x0138	; 0x800138 <__data_end>
    10d6:	f0 91 39 01 	lds	r31, 0x0139	; 0x800139 <__data_end+0x1>
    10da:	17 a2       	std	Z+39, r1	; 0x27
    10dc:	0f 90       	pop	r0
    10de:	0f be       	out	0x3f, r0	; 63
    10e0:	1f 91       	pop	r17
    10e2:	0f 91       	pop	r16
    10e4:	08 95       	ret

000010e6 <xTaskNotifyWait>:
    10e6:	4f 92       	push	r4
    10e8:	5f 92       	push	r5
    10ea:	6f 92       	push	r6
    10ec:	7f 92       	push	r7
    10ee:	8f 92       	push	r8
    10f0:	9f 92       	push	r9
    10f2:	af 92       	push	r10
    10f4:	bf 92       	push	r11
    10f6:	ef 92       	push	r14
    10f8:	ff 92       	push	r15
    10fa:	0f 93       	push	r16
    10fc:	1f 93       	push	r17
    10fe:	49 01       	movw	r8, r18
    1100:	5a 01       	movw	r10, r20
    1102:	0f b6       	in	r0, 0x3f	; 63
    1104:	f8 94       	cli
    1106:	0f 92       	push	r0
    1108:	e0 91 38 01 	lds	r30, 0x0138	; 0x800138 <__data_end>
    110c:	f0 91 39 01 	lds	r31, 0x0139	; 0x800139 <__data_end+0x1>
    1110:	27 a1       	ldd	r18, Z+39	; 0x27
    1112:	22 30       	cpi	r18, 0x02	; 2
    1114:	39 f1       	breq	.+78     	; 0x1164 <xTaskNotifyWait+0x7e>
    1116:	e0 91 38 01 	lds	r30, 0x0138	; 0x800138 <__data_end>
    111a:	f0 91 39 01 	lds	r31, 0x0139	; 0x800139 <__data_end+0x1>
    111e:	23 a1       	ldd	r18, Z+35	; 0x23
    1120:	34 a1       	ldd	r19, Z+36	; 0x24
    1122:	45 a1       	ldd	r20, Z+37	; 0x25
    1124:	56 a1       	ldd	r21, Z+38	; 0x26
    1126:	2b 01       	movw	r4, r22
    1128:	3c 01       	movw	r6, r24
    112a:	40 94       	com	r4
    112c:	50 94       	com	r5
    112e:	60 94       	com	r6
    1130:	70 94       	com	r7
    1132:	d3 01       	movw	r26, r6
    1134:	c2 01       	movw	r24, r4
    1136:	82 23       	and	r24, r18
    1138:	93 23       	and	r25, r19
    113a:	a4 23       	and	r26, r20
    113c:	b5 23       	and	r27, r21
    113e:	83 a3       	std	Z+35, r24	; 0x23
    1140:	94 a3       	std	Z+36, r25	; 0x24
    1142:	a5 a3       	std	Z+37, r26	; 0x25
    1144:	b6 a3       	std	Z+38, r27	; 0x26
    1146:	e0 91 38 01 	lds	r30, 0x0138	; 0x800138 <__data_end>
    114a:	f0 91 39 01 	lds	r31, 0x0139	; 0x800139 <__data_end+0x1>
    114e:	81 e0       	ldi	r24, 0x01	; 1
    1150:	87 a3       	std	Z+39, r24	; 0x27
    1152:	e1 14       	cp	r14, r1
    1154:	f1 04       	cpc	r15, r1
    1156:	31 f0       	breq	.+12     	; 0x1164 <xTaskNotifyWait+0x7e>
    1158:	61 e0       	ldi	r22, 0x01	; 1
    115a:	c7 01       	movw	r24, r14
    115c:	0e 94 62 01 	call	0x2c4	; 0x2c4 <prvAddCurrentTaskToDelayedList>
    1160:	0e 94 d4 12 	call	0x25a8	; 0x25a8 <vPortYield>
    1164:	0f 90       	pop	r0
    1166:	0f be       	out	0x3f, r0	; 63
    1168:	0f b6       	in	r0, 0x3f	; 63
    116a:	f8 94       	cli
    116c:	0f 92       	push	r0
    116e:	01 15       	cp	r16, r1
    1170:	11 05       	cpc	r17, r1
    1172:	69 f0       	breq	.+26     	; 0x118e <xTaskNotifyWait+0xa8>
    1174:	e0 91 38 01 	lds	r30, 0x0138	; 0x800138 <__data_end>
    1178:	f0 91 39 01 	lds	r31, 0x0139	; 0x800139 <__data_end+0x1>
    117c:	83 a1       	ldd	r24, Z+35	; 0x23
    117e:	94 a1       	ldd	r25, Z+36	; 0x24
    1180:	a5 a1       	ldd	r26, Z+37	; 0x25
    1182:	b6 a1       	ldd	r27, Z+38	; 0x26
    1184:	f8 01       	movw	r30, r16
    1186:	80 83       	st	Z, r24
    1188:	91 83       	std	Z+1, r25	; 0x01
    118a:	a2 83       	std	Z+2, r26	; 0x02
    118c:	b3 83       	std	Z+3, r27	; 0x03
    118e:	e0 91 38 01 	lds	r30, 0x0138	; 0x800138 <__data_end>
    1192:	f0 91 39 01 	lds	r31, 0x0139	; 0x800139 <__data_end+0x1>
    1196:	87 a1       	ldd	r24, Z+39	; 0x27
    1198:	82 30       	cpi	r24, 0x02	; 2
    119a:	c1 f4       	brne	.+48     	; 0x11cc <xTaskNotifyWait+0xe6>
    119c:	e0 91 38 01 	lds	r30, 0x0138	; 0x800138 <__data_end>
    11a0:	f0 91 39 01 	lds	r31, 0x0139	; 0x800139 <__data_end+0x1>
    11a4:	43 a1       	ldd	r20, Z+35	; 0x23
    11a6:	54 a1       	ldd	r21, Z+36	; 0x24
    11a8:	65 a1       	ldd	r22, Z+37	; 0x25
    11aa:	76 a1       	ldd	r23, Z+38	; 0x26
    11ac:	d5 01       	movw	r26, r10
    11ae:	c4 01       	movw	r24, r8
    11b0:	80 95       	com	r24
    11b2:	90 95       	com	r25
    11b4:	a0 95       	com	r26
    11b6:	b0 95       	com	r27
    11b8:	84 23       	and	r24, r20
    11ba:	95 23       	and	r25, r21
    11bc:	a6 23       	and	r26, r22
    11be:	b7 23       	and	r27, r23
    11c0:	83 a3       	std	Z+35, r24	; 0x23
    11c2:	94 a3       	std	Z+36, r25	; 0x24
    11c4:	a5 a3       	std	Z+37, r26	; 0x25
    11c6:	b6 a3       	std	Z+38, r27	; 0x26
    11c8:	81 e0       	ldi	r24, 0x01	; 1
    11ca:	01 c0       	rjmp	.+2      	; 0x11ce <xTaskNotifyWait+0xe8>
    11cc:	80 e0       	ldi	r24, 0x00	; 0
    11ce:	e0 91 38 01 	lds	r30, 0x0138	; 0x800138 <__data_end>
    11d2:	f0 91 39 01 	lds	r31, 0x0139	; 0x800139 <__data_end+0x1>
    11d6:	17 a2       	std	Z+39, r1	; 0x27
    11d8:	0f 90       	pop	r0
    11da:	0f be       	out	0x3f, r0	; 63
    11dc:	1f 91       	pop	r17
    11de:	0f 91       	pop	r16
    11e0:	ff 90       	pop	r15
    11e2:	ef 90       	pop	r14
    11e4:	bf 90       	pop	r11
    11e6:	af 90       	pop	r10
    11e8:	9f 90       	pop	r9
    11ea:	8f 90       	pop	r8
    11ec:	7f 90       	pop	r7
    11ee:	6f 90       	pop	r6
    11f0:	5f 90       	pop	r5
    11f2:	4f 90       	pop	r4
    11f4:	08 95       	ret

000011f6 <xTaskGenericNotify>:
    11f6:	0f 93       	push	r16
    11f8:	1f 93       	push	r17
    11fa:	cf 93       	push	r28
    11fc:	df 93       	push	r29
    11fe:	fc 01       	movw	r30, r24
    1200:	0f b6       	in	r0, 0x3f	; 63
    1202:	f8 94       	cli
    1204:	0f 92       	push	r0
    1206:	01 15       	cp	r16, r1
    1208:	11 05       	cpc	r17, r1
    120a:	49 f0       	breq	.+18     	; 0x121e <xTaskGenericNotify+0x28>
    120c:	83 a1       	ldd	r24, Z+35	; 0x23
    120e:	94 a1       	ldd	r25, Z+36	; 0x24
    1210:	a5 a1       	ldd	r26, Z+37	; 0x25
    1212:	b6 a1       	ldd	r27, Z+38	; 0x26
    1214:	e8 01       	movw	r28, r16
    1216:	88 83       	st	Y, r24
    1218:	99 83       	std	Y+1, r25	; 0x01
    121a:	aa 83       	std	Y+2, r26	; 0x02
    121c:	bb 83       	std	Y+3, r27	; 0x03
    121e:	37 a1       	ldd	r19, Z+39	; 0x27
    1220:	82 e0       	ldi	r24, 0x02	; 2
    1222:	87 a3       	std	Z+39, r24	; 0x27
    1224:	22 30       	cpi	r18, 0x02	; 2
    1226:	89 f0       	breq	.+34     	; 0x124a <xTaskGenericNotify+0x54>
    1228:	58 f4       	brcc	.+22     	; 0x1240 <xTaskGenericNotify+0x4a>
    122a:	21 30       	cpi	r18, 0x01	; 1
    122c:	01 f5       	brne	.+64     	; 0x126e <xTaskGenericNotify+0x78>
    122e:	83 a1       	ldd	r24, Z+35	; 0x23
    1230:	94 a1       	ldd	r25, Z+36	; 0x24
    1232:	a5 a1       	ldd	r26, Z+37	; 0x25
    1234:	b6 a1       	ldd	r27, Z+38	; 0x26
    1236:	48 2b       	or	r20, r24
    1238:	59 2b       	or	r21, r25
    123a:	6a 2b       	or	r22, r26
    123c:	7b 2b       	or	r23, r27
    123e:	13 c0       	rjmp	.+38     	; 0x1266 <xTaskGenericNotify+0x70>
    1240:	23 30       	cpi	r18, 0x03	; 3
    1242:	89 f0       	breq	.+34     	; 0x1266 <xTaskGenericNotify+0x70>
    1244:	24 30       	cpi	r18, 0x04	; 4
    1246:	69 f0       	breq	.+26     	; 0x1262 <xTaskGenericNotify+0x6c>
    1248:	12 c0       	rjmp	.+36     	; 0x126e <xTaskGenericNotify+0x78>
    124a:	83 a1       	ldd	r24, Z+35	; 0x23
    124c:	94 a1       	ldd	r25, Z+36	; 0x24
    124e:	a5 a1       	ldd	r26, Z+37	; 0x25
    1250:	b6 a1       	ldd	r27, Z+38	; 0x26
    1252:	01 96       	adiw	r24, 0x01	; 1
    1254:	a1 1d       	adc	r26, r1
    1256:	b1 1d       	adc	r27, r1
    1258:	83 a3       	std	Z+35, r24	; 0x23
    125a:	94 a3       	std	Z+36, r25	; 0x24
    125c:	a5 a3       	std	Z+37, r26	; 0x25
    125e:	b6 a3       	std	Z+38, r27	; 0x26
    1260:	06 c0       	rjmp	.+12     	; 0x126e <xTaskGenericNotify+0x78>
    1262:	32 30       	cpi	r19, 0x02	; 2
    1264:	49 f1       	breq	.+82     	; 0x12b8 <xTaskGenericNotify+0xc2>
    1266:	43 a3       	std	Z+35, r20	; 0x23
    1268:	54 a3       	std	Z+36, r21	; 0x24
    126a:	65 a3       	std	Z+37, r22	; 0x25
    126c:	76 a3       	std	Z+38, r23	; 0x26
    126e:	31 30       	cpi	r19, 0x01	; 1
    1270:	09 f5       	brne	.+66     	; 0x12b4 <xTaskGenericNotify+0xbe>
    1272:	ef 01       	movw	r28, r30
    1274:	8f 01       	movw	r16, r30
    1276:	0e 5f       	subi	r16, 0xFE	; 254
    1278:	1f 4f       	sbci	r17, 0xFF	; 255
    127a:	c8 01       	movw	r24, r16
    127c:	0e 94 fc 0f 	call	0x1ff8	; 0x1ff8 <uxListRemove>
    1280:	8e 89       	ldd	r24, Y+22	; 0x16
    1282:	90 91 44 01 	lds	r25, 0x0144	; 0x800144 <uxTopReadyPriority>
    1286:	98 17       	cp	r25, r24
    1288:	10 f4       	brcc	.+4      	; 0x128e <xTaskGenericNotify+0x98>
    128a:	80 93 44 01 	sts	0x0144, r24	; 0x800144 <uxTopReadyPriority>
    128e:	29 e0       	ldi	r18, 0x09	; 9
    1290:	82 9f       	mul	r24, r18
    1292:	c0 01       	movw	r24, r0
    1294:	11 24       	eor	r1, r1
    1296:	b8 01       	movw	r22, r16
    1298:	86 58       	subi	r24, 0x86	; 134
    129a:	9e 4f       	sbci	r25, 0xFE	; 254
    129c:	0e 94 a3 0f 	call	0x1f46	; 0x1f46 <vListInsertEnd>
    12a0:	e0 91 38 01 	lds	r30, 0x0138	; 0x800138 <__data_end>
    12a4:	f0 91 39 01 	lds	r31, 0x0139	; 0x800139 <__data_end+0x1>
    12a8:	9e 89       	ldd	r25, Y+22	; 0x16
    12aa:	86 89       	ldd	r24, Z+22	; 0x16
    12ac:	89 17       	cp	r24, r25
    12ae:	10 f4       	brcc	.+4      	; 0x12b4 <xTaskGenericNotify+0xbe>
    12b0:	0e 94 d4 12 	call	0x25a8	; 0x25a8 <vPortYield>
    12b4:	81 e0       	ldi	r24, 0x01	; 1
    12b6:	01 c0       	rjmp	.+2      	; 0x12ba <xTaskGenericNotify+0xc4>
    12b8:	80 e0       	ldi	r24, 0x00	; 0
    12ba:	0f 90       	pop	r0
    12bc:	0f be       	out	0x3f, r0	; 63
    12be:	df 91       	pop	r29
    12c0:	cf 91       	pop	r28
    12c2:	1f 91       	pop	r17
    12c4:	0f 91       	pop	r16
    12c6:	08 95       	ret

000012c8 <xTaskGenericNotifyFromISR>:
    12c8:	ef 92       	push	r14
    12ca:	ff 92       	push	r15
    12cc:	0f 93       	push	r16
    12ce:	1f 93       	push	r17
    12d0:	cf 93       	push	r28
    12d2:	df 93       	push	r29
    12d4:	fc 01       	movw	r30, r24
    12d6:	01 15       	cp	r16, r1
    12d8:	11 05       	cpc	r17, r1
    12da:	49 f0       	breq	.+18     	; 0x12ee <xTaskGenericNotifyFromISR+0x26>
    12dc:	83 a1       	ldd	r24, Z+35	; 0x23
    12de:	94 a1       	ldd	r25, Z+36	; 0x24
    12e0:	a5 a1       	ldd	r26, Z+37	; 0x25
    12e2:	b6 a1       	ldd	r27, Z+38	; 0x26
    12e4:	e8 01       	movw	r28, r16
    12e6:	88 83       	st	Y, r24
    12e8:	99 83       	std	Y+1, r25	; 0x01
    12ea:	aa 83       	std	Y+2, r26	; 0x02
    12ec:	bb 83       	std	Y+3, r27	; 0x03
    12ee:	37 a1       	ldd	r19, Z+39	; 0x27
    12f0:	82 e0       	ldi	r24, 0x02	; 2
    12f2:	87 a3       	std	Z+39, r24	; 0x27
    12f4:	22 30       	cpi	r18, 0x02	; 2
    12f6:	89 f0       	breq	.+34     	; 0x131a <xTaskGenericNotifyFromISR+0x52>
    12f8:	58 f4       	brcc	.+22     	; 0x1310 <xTaskGenericNotifyFromISR+0x48>
    12fa:	21 30       	cpi	r18, 0x01	; 1
    12fc:	01 f5       	brne	.+64     	; 0x133e <xTaskGenericNotifyFromISR+0x76>
    12fe:	83 a1       	ldd	r24, Z+35	; 0x23
    1300:	94 a1       	ldd	r25, Z+36	; 0x24
    1302:	a5 a1       	ldd	r26, Z+37	; 0x25
    1304:	b6 a1       	ldd	r27, Z+38	; 0x26
    1306:	48 2b       	or	r20, r24
    1308:	59 2b       	or	r21, r25
    130a:	6a 2b       	or	r22, r26
    130c:	7b 2b       	or	r23, r27
    130e:	13 c0       	rjmp	.+38     	; 0x1336 <xTaskGenericNotifyFromISR+0x6e>
    1310:	23 30       	cpi	r18, 0x03	; 3
    1312:	89 f0       	breq	.+34     	; 0x1336 <xTaskGenericNotifyFromISR+0x6e>
    1314:	24 30       	cpi	r18, 0x04	; 4
    1316:	69 f0       	breq	.+26     	; 0x1332 <xTaskGenericNotifyFromISR+0x6a>
    1318:	12 c0       	rjmp	.+36     	; 0x133e <xTaskGenericNotifyFromISR+0x76>
    131a:	83 a1       	ldd	r24, Z+35	; 0x23
    131c:	94 a1       	ldd	r25, Z+36	; 0x24
    131e:	a5 a1       	ldd	r26, Z+37	; 0x25
    1320:	b6 a1       	ldd	r27, Z+38	; 0x26
    1322:	01 96       	adiw	r24, 0x01	; 1
    1324:	a1 1d       	adc	r26, r1
    1326:	b1 1d       	adc	r27, r1
    1328:	83 a3       	std	Z+35, r24	; 0x23
    132a:	94 a3       	std	Z+36, r25	; 0x24
    132c:	a5 a3       	std	Z+37, r26	; 0x25
    132e:	b6 a3       	std	Z+38, r27	; 0x26
    1330:	06 c0       	rjmp	.+12     	; 0x133e <xTaskGenericNotifyFromISR+0x76>
    1332:	32 30       	cpi	r19, 0x02	; 2
    1334:	d9 f1       	breq	.+118    	; 0x13ac <xTaskGenericNotifyFromISR+0xe4>
    1336:	43 a3       	std	Z+35, r20	; 0x23
    1338:	54 a3       	std	Z+36, r21	; 0x24
    133a:	65 a3       	std	Z+37, r22	; 0x25
    133c:	76 a3       	std	Z+38, r23	; 0x26
    133e:	31 30       	cpi	r19, 0x01	; 1
    1340:	11 f0       	breq	.+4      	; 0x1346 <xTaskGenericNotifyFromISR+0x7e>
    1342:	81 e0       	ldi	r24, 0x01	; 1
    1344:	34 c0       	rjmp	.+104    	; 0x13ae <xTaskGenericNotifyFromISR+0xe6>
    1346:	ef 01       	movw	r28, r30
    1348:	80 91 3a 01 	lds	r24, 0x013A	; 0x80013a <uxSchedulerSuspended>
    134c:	81 11       	cpse	r24, r1
    134e:	15 c0       	rjmp	.+42     	; 0x137a <xTaskGenericNotifyFromISR+0xb2>
    1350:	8f 01       	movw	r16, r30
    1352:	0e 5f       	subi	r16, 0xFE	; 254
    1354:	1f 4f       	sbci	r17, 0xFF	; 255
    1356:	c8 01       	movw	r24, r16
    1358:	0e 94 fc 0f 	call	0x1ff8	; 0x1ff8 <uxListRemove>
    135c:	8e 89       	ldd	r24, Y+22	; 0x16
    135e:	90 91 44 01 	lds	r25, 0x0144	; 0x800144 <uxTopReadyPriority>
    1362:	98 17       	cp	r25, r24
    1364:	10 f4       	brcc	.+4      	; 0x136a <xTaskGenericNotifyFromISR+0xa2>
    1366:	80 93 44 01 	sts	0x0144, r24	; 0x800144 <uxTopReadyPriority>
    136a:	e9 e0       	ldi	r30, 0x09	; 9
    136c:	8e 9f       	mul	r24, r30
    136e:	c0 01       	movw	r24, r0
    1370:	11 24       	eor	r1, r1
    1372:	b8 01       	movw	r22, r16
    1374:	86 58       	subi	r24, 0x86	; 134
    1376:	9e 4f       	sbci	r25, 0xFE	; 254
    1378:	05 c0       	rjmp	.+10     	; 0x1384 <xTaskGenericNotifyFromISR+0xbc>
    137a:	bf 01       	movw	r22, r30
    137c:	64 5f       	subi	r22, 0xF4	; 244
    137e:	7f 4f       	sbci	r23, 0xFF	; 255
    1380:	8b e5       	ldi	r24, 0x5B	; 91
    1382:	91 e0       	ldi	r25, 0x01	; 1
    1384:	0e 94 a3 0f 	call	0x1f46	; 0x1f46 <vListInsertEnd>
    1388:	e0 91 38 01 	lds	r30, 0x0138	; 0x800138 <__data_end>
    138c:	f0 91 39 01 	lds	r31, 0x0139	; 0x800139 <__data_end+0x1>
    1390:	9e 89       	ldd	r25, Y+22	; 0x16
    1392:	86 89       	ldd	r24, Z+22	; 0x16
    1394:	89 17       	cp	r24, r25
    1396:	a8 f6       	brcc	.-86     	; 0x1342 <xTaskGenericNotifyFromISR+0x7a>
    1398:	e1 14       	cp	r14, r1
    139a:	f1 04       	cpc	r15, r1
    139c:	19 f0       	breq	.+6      	; 0x13a4 <xTaskGenericNotifyFromISR+0xdc>
    139e:	81 e0       	ldi	r24, 0x01	; 1
    13a0:	e7 01       	movw	r28, r14
    13a2:	88 83       	st	Y, r24
    13a4:	81 e0       	ldi	r24, 0x01	; 1
    13a6:	80 93 41 01 	sts	0x0141, r24	; 0x800141 <xYieldPending>
    13aa:	01 c0       	rjmp	.+2      	; 0x13ae <xTaskGenericNotifyFromISR+0xe6>
    13ac:	80 e0       	ldi	r24, 0x00	; 0
    13ae:	df 91       	pop	r29
    13b0:	cf 91       	pop	r28
    13b2:	1f 91       	pop	r17
    13b4:	0f 91       	pop	r16
    13b6:	ff 90       	pop	r15
    13b8:	ef 90       	pop	r14
    13ba:	08 95       	ret

000013bc <vTaskNotifyGiveFromISR>:
    13bc:	ef 92       	push	r14
    13be:	ff 92       	push	r15
    13c0:	0f 93       	push	r16
    13c2:	1f 93       	push	r17
    13c4:	cf 93       	push	r28
    13c6:	df 93       	push	r29
    13c8:	fc 01       	movw	r30, r24
    13ca:	27 a1       	ldd	r18, Z+39	; 0x27
    13cc:	82 e0       	ldi	r24, 0x02	; 2
    13ce:	87 a3       	std	Z+39, r24	; 0x27
    13d0:	83 a1       	ldd	r24, Z+35	; 0x23
    13d2:	94 a1       	ldd	r25, Z+36	; 0x24
    13d4:	a5 a1       	ldd	r26, Z+37	; 0x25
    13d6:	b6 a1       	ldd	r27, Z+38	; 0x26
    13d8:	01 96       	adiw	r24, 0x01	; 1
    13da:	a1 1d       	adc	r26, r1
    13dc:	b1 1d       	adc	r27, r1
    13de:	83 a3       	std	Z+35, r24	; 0x23
    13e0:	94 a3       	std	Z+36, r25	; 0x24
    13e2:	a5 a3       	std	Z+37, r26	; 0x25
    13e4:	b6 a3       	std	Z+38, r27	; 0x26
    13e6:	21 30       	cpi	r18, 0x01	; 1
    13e8:	a1 f5       	brne	.+104    	; 0x1452 <vTaskNotifyGiveFromISR+0x96>
    13ea:	8b 01       	movw	r16, r22
    13ec:	ef 01       	movw	r28, r30
    13ee:	80 91 3a 01 	lds	r24, 0x013A	; 0x80013a <uxSchedulerSuspended>
    13f2:	81 11       	cpse	r24, r1
    13f4:	16 c0       	rjmp	.+44     	; 0x1422 <vTaskNotifyGiveFromISR+0x66>
    13f6:	7f 01       	movw	r14, r30
    13f8:	22 e0       	ldi	r18, 0x02	; 2
    13fa:	e2 0e       	add	r14, r18
    13fc:	f1 1c       	adc	r15, r1
    13fe:	c7 01       	movw	r24, r14
    1400:	0e 94 fc 0f 	call	0x1ff8	; 0x1ff8 <uxListRemove>
    1404:	8e 89       	ldd	r24, Y+22	; 0x16
    1406:	90 91 44 01 	lds	r25, 0x0144	; 0x800144 <uxTopReadyPriority>
    140a:	98 17       	cp	r25, r24
    140c:	10 f4       	brcc	.+4      	; 0x1412 <vTaskNotifyGiveFromISR+0x56>
    140e:	80 93 44 01 	sts	0x0144, r24	; 0x800144 <uxTopReadyPriority>
    1412:	e9 e0       	ldi	r30, 0x09	; 9
    1414:	8e 9f       	mul	r24, r30
    1416:	c0 01       	movw	r24, r0
    1418:	11 24       	eor	r1, r1
    141a:	b7 01       	movw	r22, r14
    141c:	86 58       	subi	r24, 0x86	; 134
    141e:	9e 4f       	sbci	r25, 0xFE	; 254
    1420:	05 c0       	rjmp	.+10     	; 0x142c <vTaskNotifyGiveFromISR+0x70>
    1422:	bf 01       	movw	r22, r30
    1424:	64 5f       	subi	r22, 0xF4	; 244
    1426:	7f 4f       	sbci	r23, 0xFF	; 255
    1428:	8b e5       	ldi	r24, 0x5B	; 91
    142a:	91 e0       	ldi	r25, 0x01	; 1
    142c:	0e 94 a3 0f 	call	0x1f46	; 0x1f46 <vListInsertEnd>
    1430:	e0 91 38 01 	lds	r30, 0x0138	; 0x800138 <__data_end>
    1434:	f0 91 39 01 	lds	r31, 0x0139	; 0x800139 <__data_end+0x1>
    1438:	9e 89       	ldd	r25, Y+22	; 0x16
    143a:	86 89       	ldd	r24, Z+22	; 0x16
    143c:	89 17       	cp	r24, r25
    143e:	48 f4       	brcc	.+18     	; 0x1452 <vTaskNotifyGiveFromISR+0x96>
    1440:	01 15       	cp	r16, r1
    1442:	11 05       	cpc	r17, r1
    1444:	19 f0       	breq	.+6      	; 0x144c <vTaskNotifyGiveFromISR+0x90>
    1446:	81 e0       	ldi	r24, 0x01	; 1
    1448:	f8 01       	movw	r30, r16
    144a:	80 83       	st	Z, r24
    144c:	81 e0       	ldi	r24, 0x01	; 1
    144e:	80 93 41 01 	sts	0x0141, r24	; 0x800141 <xYieldPending>
    1452:	df 91       	pop	r29
    1454:	cf 91       	pop	r28
    1456:	1f 91       	pop	r17
    1458:	0f 91       	pop	r16
    145a:	ff 90       	pop	r15
    145c:	ef 90       	pop	r14
    145e:	08 95       	ret

00001460 <xTaskNotifyStateClear>:
    1460:	00 97       	sbiw	r24, 0x00	; 0
    1462:	21 f4       	brne	.+8      	; 0x146c <xTaskNotifyStateClear+0xc>
    1464:	80 91 38 01 	lds	r24, 0x0138	; 0x800138 <__data_end>
    1468:	90 91 39 01 	lds	r25, 0x0139	; 0x800139 <__data_end+0x1>
    146c:	0f b6       	in	r0, 0x3f	; 63
    146e:	f8 94       	cli
    1470:	0f 92       	push	r0
    1472:	fc 01       	movw	r30, r24
    1474:	27 a1       	ldd	r18, Z+39	; 0x27
    1476:	22 30       	cpi	r18, 0x02	; 2
    1478:	19 f4       	brne	.+6      	; 0x1480 <xTaskNotifyStateClear+0x20>
    147a:	17 a2       	std	Z+39, r1	; 0x27
    147c:	81 e0       	ldi	r24, 0x01	; 1
    147e:	01 c0       	rjmp	.+2      	; 0x1482 <xTaskNotifyStateClear+0x22>
    1480:	80 e0       	ldi	r24, 0x00	; 0
    1482:	0f 90       	pop	r0
    1484:	0f be       	out	0x3f, r0	; 63
    1486:	08 95       	ret

00001488 <prvIsQueueEmpty>:
    1488:	0f b6       	in	r0, 0x3f	; 63
    148a:	f8 94       	cli
    148c:	0f 92       	push	r0
    148e:	fc 01       	movw	r30, r24
    1490:	92 8d       	ldd	r25, Z+26	; 0x1a
    1492:	0f 90       	pop	r0
    1494:	0f be       	out	0x3f, r0	; 63
    1496:	81 e0       	ldi	r24, 0x01	; 1
    1498:	91 11       	cpse	r25, r1
    149a:	80 e0       	ldi	r24, 0x00	; 0
    149c:	08 95       	ret

0000149e <prvCopyDataToQueue>:
    149e:	0f 93       	push	r16
    14a0:	1f 93       	push	r17
    14a2:	cf 93       	push	r28
    14a4:	df 93       	push	r29
    14a6:	ec 01       	movw	r28, r24
    14a8:	04 2f       	mov	r16, r20
    14aa:	1a 8d       	ldd	r17, Y+26	; 0x1a
    14ac:	4c 8d       	ldd	r20, Y+28	; 0x1c
    14ae:	41 11       	cpse	r20, r1
    14b0:	0b c0       	rjmp	.+22     	; 0x14c8 <prvCopyDataToQueue+0x2a>
    14b2:	88 81       	ld	r24, Y
    14b4:	99 81       	ldd	r25, Y+1	; 0x01
    14b6:	89 2b       	or	r24, r25
    14b8:	e9 f5       	brne	.+122    	; 0x1534 <prvCopyDataToQueue+0x96>
    14ba:	8c 81       	ldd	r24, Y+4	; 0x04
    14bc:	9d 81       	ldd	r25, Y+5	; 0x05
    14be:	0e 94 78 07 	call	0xef0	; 0xef0 <xTaskPriorityDisinherit>
    14c2:	1d 82       	std	Y+5, r1	; 0x05
    14c4:	1c 82       	std	Y+4, r1	; 0x04
    14c6:	37 c0       	rjmp	.+110    	; 0x1536 <prvCopyDataToQueue+0x98>
    14c8:	50 e0       	ldi	r21, 0x00	; 0
    14ca:	01 11       	cpse	r16, r1
    14cc:	15 c0       	rjmp	.+42     	; 0x14f8 <prvCopyDataToQueue+0x5a>
    14ce:	8a 81       	ldd	r24, Y+2	; 0x02
    14d0:	9b 81       	ldd	r25, Y+3	; 0x03
    14d2:	0e 94 16 14 	call	0x282c	; 0x282c <memcpy>
    14d6:	2c 8d       	ldd	r18, Y+28	; 0x1c
    14d8:	8a 81       	ldd	r24, Y+2	; 0x02
    14da:	9b 81       	ldd	r25, Y+3	; 0x03
    14dc:	82 0f       	add	r24, r18
    14de:	91 1d       	adc	r25, r1
    14e0:	9b 83       	std	Y+3, r25	; 0x03
    14e2:	8a 83       	std	Y+2, r24	; 0x02
    14e4:	2c 81       	ldd	r18, Y+4	; 0x04
    14e6:	3d 81       	ldd	r19, Y+5	; 0x05
    14e8:	82 17       	cp	r24, r18
    14ea:	93 07       	cpc	r25, r19
    14ec:	18 f1       	brcs	.+70     	; 0x1534 <prvCopyDataToQueue+0x96>
    14ee:	88 81       	ld	r24, Y
    14f0:	99 81       	ldd	r25, Y+1	; 0x01
    14f2:	9b 83       	std	Y+3, r25	; 0x03
    14f4:	8a 83       	std	Y+2, r24	; 0x02
    14f6:	1e c0       	rjmp	.+60     	; 0x1534 <prvCopyDataToQueue+0x96>
    14f8:	8e 81       	ldd	r24, Y+6	; 0x06
    14fa:	9f 81       	ldd	r25, Y+7	; 0x07
    14fc:	0e 94 16 14 	call	0x282c	; 0x282c <memcpy>
    1500:	8c 8d       	ldd	r24, Y+28	; 0x1c
    1502:	90 e0       	ldi	r25, 0x00	; 0
    1504:	91 95       	neg	r25
    1506:	81 95       	neg	r24
    1508:	91 09       	sbc	r25, r1
    150a:	2e 81       	ldd	r18, Y+6	; 0x06
    150c:	3f 81       	ldd	r19, Y+7	; 0x07
    150e:	28 0f       	add	r18, r24
    1510:	39 1f       	adc	r19, r25
    1512:	3f 83       	std	Y+7, r19	; 0x07
    1514:	2e 83       	std	Y+6, r18	; 0x06
    1516:	48 81       	ld	r20, Y
    1518:	59 81       	ldd	r21, Y+1	; 0x01
    151a:	24 17       	cp	r18, r20
    151c:	35 07       	cpc	r19, r21
    151e:	30 f4       	brcc	.+12     	; 0x152c <prvCopyDataToQueue+0x8e>
    1520:	2c 81       	ldd	r18, Y+4	; 0x04
    1522:	3d 81       	ldd	r19, Y+5	; 0x05
    1524:	82 0f       	add	r24, r18
    1526:	93 1f       	adc	r25, r19
    1528:	9f 83       	std	Y+7, r25	; 0x07
    152a:	8e 83       	std	Y+6, r24	; 0x06
    152c:	02 30       	cpi	r16, 0x02	; 2
    152e:	11 f4       	brne	.+4      	; 0x1534 <prvCopyDataToQueue+0x96>
    1530:	11 11       	cpse	r17, r1
    1532:	11 50       	subi	r17, 0x01	; 1
    1534:	80 e0       	ldi	r24, 0x00	; 0
    1536:	1f 5f       	subi	r17, 0xFF	; 255
    1538:	1a 8f       	std	Y+26, r17	; 0x1a
    153a:	df 91       	pop	r29
    153c:	cf 91       	pop	r28
    153e:	1f 91       	pop	r17
    1540:	0f 91       	pop	r16
    1542:	08 95       	ret

00001544 <prvCopyDataFromQueue>:
    1544:	fc 01       	movw	r30, r24
    1546:	cb 01       	movw	r24, r22
    1548:	44 8d       	ldd	r20, Z+28	; 0x1c
    154a:	44 23       	and	r20, r20
    154c:	a1 f0       	breq	.+40     	; 0x1576 <prvCopyDataFromQueue+0x32>
    154e:	50 e0       	ldi	r21, 0x00	; 0
    1550:	26 81       	ldd	r18, Z+6	; 0x06
    1552:	37 81       	ldd	r19, Z+7	; 0x07
    1554:	24 0f       	add	r18, r20
    1556:	35 1f       	adc	r19, r21
    1558:	37 83       	std	Z+7, r19	; 0x07
    155a:	26 83       	std	Z+6, r18	; 0x06
    155c:	64 81       	ldd	r22, Z+4	; 0x04
    155e:	75 81       	ldd	r23, Z+5	; 0x05
    1560:	26 17       	cp	r18, r22
    1562:	37 07       	cpc	r19, r23
    1564:	20 f0       	brcs	.+8      	; 0x156e <prvCopyDataFromQueue+0x2a>
    1566:	20 81       	ld	r18, Z
    1568:	31 81       	ldd	r19, Z+1	; 0x01
    156a:	37 83       	std	Z+7, r19	; 0x07
    156c:	26 83       	std	Z+6, r18	; 0x06
    156e:	66 81       	ldd	r22, Z+6	; 0x06
    1570:	77 81       	ldd	r23, Z+7	; 0x07
    1572:	0c 94 16 14 	jmp	0x282c	; 0x282c <memcpy>
    1576:	08 95       	ret

00001578 <prvUnlockQueue>:
    1578:	ef 92       	push	r14
    157a:	ff 92       	push	r15
    157c:	1f 93       	push	r17
    157e:	cf 93       	push	r28
    1580:	df 93       	push	r29
    1582:	ec 01       	movw	r28, r24
    1584:	0f b6       	in	r0, 0x3f	; 63
    1586:	f8 94       	cli
    1588:	0f 92       	push	r0
    158a:	1e 8d       	ldd	r17, Y+30	; 0x1e
    158c:	7c 01       	movw	r14, r24
    158e:	81 e1       	ldi	r24, 0x11	; 17
    1590:	e8 0e       	add	r14, r24
    1592:	f1 1c       	adc	r15, r1
    1594:	11 16       	cp	r1, r17
    1596:	5c f4       	brge	.+22     	; 0x15ae <prvUnlockQueue+0x36>
    1598:	89 89       	ldd	r24, Y+17	; 0x11
    159a:	88 23       	and	r24, r24
    159c:	41 f0       	breq	.+16     	; 0x15ae <prvUnlockQueue+0x36>
    159e:	c7 01       	movw	r24, r14
    15a0:	0e 94 4c 06 	call	0xc98	; 0xc98 <xTaskRemoveFromEventList>
    15a4:	81 11       	cpse	r24, r1
    15a6:	0e 94 0c 07 	call	0xe18	; 0xe18 <vTaskMissedYield>
    15aa:	11 50       	subi	r17, 0x01	; 1
    15ac:	f3 cf       	rjmp	.-26     	; 0x1594 <prvUnlockQueue+0x1c>
    15ae:	8f ef       	ldi	r24, 0xFF	; 255
    15b0:	8e 8f       	std	Y+30, r24	; 0x1e
    15b2:	0f 90       	pop	r0
    15b4:	0f be       	out	0x3f, r0	; 63
    15b6:	0f b6       	in	r0, 0x3f	; 63
    15b8:	f8 94       	cli
    15ba:	0f 92       	push	r0
    15bc:	1d 8d       	ldd	r17, Y+29	; 0x1d
    15be:	7e 01       	movw	r14, r28
    15c0:	88 e0       	ldi	r24, 0x08	; 8
    15c2:	e8 0e       	add	r14, r24
    15c4:	f1 1c       	adc	r15, r1
    15c6:	11 16       	cp	r1, r17
    15c8:	5c f4       	brge	.+22     	; 0x15e0 <prvUnlockQueue+0x68>
    15ca:	88 85       	ldd	r24, Y+8	; 0x08
    15cc:	88 23       	and	r24, r24
    15ce:	41 f0       	breq	.+16     	; 0x15e0 <prvUnlockQueue+0x68>
    15d0:	c7 01       	movw	r24, r14
    15d2:	0e 94 4c 06 	call	0xc98	; 0xc98 <xTaskRemoveFromEventList>
    15d6:	81 11       	cpse	r24, r1
    15d8:	0e 94 0c 07 	call	0xe18	; 0xe18 <vTaskMissedYield>
    15dc:	11 50       	subi	r17, 0x01	; 1
    15de:	f3 cf       	rjmp	.-26     	; 0x15c6 <prvUnlockQueue+0x4e>
    15e0:	8f ef       	ldi	r24, 0xFF	; 255
    15e2:	8d 8f       	std	Y+29, r24	; 0x1d
    15e4:	0f 90       	pop	r0
    15e6:	0f be       	out	0x3f, r0	; 63
    15e8:	df 91       	pop	r29
    15ea:	cf 91       	pop	r28
    15ec:	1f 91       	pop	r17
    15ee:	ff 90       	pop	r15
    15f0:	ef 90       	pop	r14
    15f2:	08 95       	ret

000015f4 <xQueueGenericReset>:
    15f4:	cf 93       	push	r28
    15f6:	df 93       	push	r29
    15f8:	ec 01       	movw	r28, r24
    15fa:	0f b6       	in	r0, 0x3f	; 63
    15fc:	f8 94       	cli
    15fe:	0f 92       	push	r0
    1600:	48 81       	ld	r20, Y
    1602:	59 81       	ldd	r21, Y+1	; 0x01
    1604:	8b 8d       	ldd	r24, Y+27	; 0x1b
    1606:	7c 8d       	ldd	r23, Y+28	; 0x1c
    1608:	9a 01       	movw	r18, r20
    160a:	87 9f       	mul	r24, r23
    160c:	20 0d       	add	r18, r0
    160e:	31 1d       	adc	r19, r1
    1610:	11 24       	eor	r1, r1
    1612:	3d 83       	std	Y+5, r19	; 0x05
    1614:	2c 83       	std	Y+4, r18	; 0x04
    1616:	1a 8e       	std	Y+26, r1	; 0x1a
    1618:	5b 83       	std	Y+3, r21	; 0x03
    161a:	4a 83       	std	Y+2, r20	; 0x02
    161c:	90 e0       	ldi	r25, 0x00	; 0
    161e:	01 97       	sbiw	r24, 0x01	; 1
    1620:	78 9f       	mul	r23, r24
    1622:	90 01       	movw	r18, r0
    1624:	79 9f       	mul	r23, r25
    1626:	30 0d       	add	r19, r0
    1628:	11 24       	eor	r1, r1
    162a:	ca 01       	movw	r24, r20
    162c:	82 0f       	add	r24, r18
    162e:	93 1f       	adc	r25, r19
    1630:	9f 83       	std	Y+7, r25	; 0x07
    1632:	8e 83       	std	Y+6, r24	; 0x06
    1634:	8f ef       	ldi	r24, 0xFF	; 255
    1636:	8d 8f       	std	Y+29, r24	; 0x1d
    1638:	8e 8f       	std	Y+30, r24	; 0x1e
    163a:	61 11       	cpse	r22, r1
    163c:	0c c0       	rjmp	.+24     	; 0x1656 <xQueueGenericReset+0x62>
    163e:	88 85       	ldd	r24, Y+8	; 0x08
    1640:	88 23       	and	r24, r24
    1642:	89 f0       	breq	.+34     	; 0x1666 <xQueueGenericReset+0x72>
    1644:	ce 01       	movw	r24, r28
    1646:	08 96       	adiw	r24, 0x08	; 8
    1648:	0e 94 4c 06 	call	0xc98	; 0xc98 <xTaskRemoveFromEventList>
    164c:	88 23       	and	r24, r24
    164e:	59 f0       	breq	.+22     	; 0x1666 <xQueueGenericReset+0x72>
    1650:	0e 94 d4 12 	call	0x25a8	; 0x25a8 <vPortYield>
    1654:	08 c0       	rjmp	.+16     	; 0x1666 <xQueueGenericReset+0x72>
    1656:	ce 01       	movw	r24, r28
    1658:	08 96       	adiw	r24, 0x08	; 8
    165a:	0e 94 91 0f 	call	0x1f22	; 0x1f22 <vListInitialise>
    165e:	ce 01       	movw	r24, r28
    1660:	41 96       	adiw	r24, 0x11	; 17
    1662:	0e 94 91 0f 	call	0x1f22	; 0x1f22 <vListInitialise>
    1666:	0f 90       	pop	r0
    1668:	0f be       	out	0x3f, r0	; 63
    166a:	81 e0       	ldi	r24, 0x01	; 1
    166c:	df 91       	pop	r29
    166e:	cf 91       	pop	r28
    1670:	08 95       	ret

00001672 <xQueueGenericCreate>:
    1672:	0f 93       	push	r16
    1674:	1f 93       	push	r17
    1676:	cf 93       	push	r28
    1678:	df 93       	push	r29
    167a:	08 2f       	mov	r16, r24
    167c:	16 2f       	mov	r17, r22
    167e:	66 23       	and	r22, r22
    1680:	21 f0       	breq	.+8      	; 0x168a <xQueueGenericCreate+0x18>
    1682:	86 9f       	mul	r24, r22
    1684:	c0 01       	movw	r24, r0
    1686:	11 24       	eor	r1, r1
    1688:	02 c0       	rjmp	.+4      	; 0x168e <xQueueGenericCreate+0x1c>
    168a:	80 e0       	ldi	r24, 0x00	; 0
    168c:	90 e0       	ldi	r25, 0x00	; 0
    168e:	4f 96       	adiw	r24, 0x1f	; 31
    1690:	0e 94 e6 11 	call	0x23cc	; 0x23cc <pvPortMalloc>
    1694:	ec 01       	movw	r28, r24
    1696:	00 97       	sbiw	r24, 0x00	; 0
    1698:	71 f0       	breq	.+28     	; 0x16b6 <xQueueGenericCreate+0x44>
    169a:	11 11       	cpse	r17, r1
    169c:	03 c0       	rjmp	.+6      	; 0x16a4 <xQueueGenericCreate+0x32>
    169e:	99 83       	std	Y+1, r25	; 0x01
    16a0:	88 83       	st	Y, r24
    16a2:	03 c0       	rjmp	.+6      	; 0x16aa <xQueueGenericCreate+0x38>
    16a4:	4f 96       	adiw	r24, 0x1f	; 31
    16a6:	99 83       	std	Y+1, r25	; 0x01
    16a8:	88 83       	st	Y, r24
    16aa:	0b 8f       	std	Y+27, r16	; 0x1b
    16ac:	1c 8f       	std	Y+28, r17	; 0x1c
    16ae:	61 e0       	ldi	r22, 0x01	; 1
    16b0:	ce 01       	movw	r24, r28
    16b2:	0e 94 fa 0a 	call	0x15f4	; 0x15f4 <xQueueGenericReset>
    16b6:	ce 01       	movw	r24, r28
    16b8:	df 91       	pop	r29
    16ba:	cf 91       	pop	r28
    16bc:	1f 91       	pop	r17
    16be:	0f 91       	pop	r16
    16c0:	08 95       	ret

000016c2 <xQueueGenericSend>:
    16c2:	af 92       	push	r10
    16c4:	bf 92       	push	r11
    16c6:	cf 92       	push	r12
    16c8:	df 92       	push	r13
    16ca:	ff 92       	push	r15
    16cc:	0f 93       	push	r16
    16ce:	1f 93       	push	r17
    16d0:	cf 93       	push	r28
    16d2:	df 93       	push	r29
    16d4:	00 d0       	rcall	.+0      	; 0x16d6 <xQueueGenericSend+0x14>
    16d6:	00 d0       	rcall	.+0      	; 0x16d8 <xQueueGenericSend+0x16>
    16d8:	1f 92       	push	r1
    16da:	cd b7       	in	r28, 0x3d	; 61
    16dc:	de b7       	in	r29, 0x3e	; 62
    16de:	8c 01       	movw	r16, r24
    16e0:	6b 01       	movw	r12, r22
    16e2:	5d 83       	std	Y+5, r21	; 0x05
    16e4:	4c 83       	std	Y+4, r20	; 0x04
    16e6:	f2 2e       	mov	r15, r18
    16e8:	80 e0       	ldi	r24, 0x00	; 0
    16ea:	58 01       	movw	r10, r16
    16ec:	98 e0       	ldi	r25, 0x08	; 8
    16ee:	a9 0e       	add	r10, r25
    16f0:	b1 1c       	adc	r11, r1
    16f2:	0f b6       	in	r0, 0x3f	; 63
    16f4:	f8 94       	cli
    16f6:	0f 92       	push	r0
    16f8:	f8 01       	movw	r30, r16
    16fa:	22 8d       	ldd	r18, Z+26	; 0x1a
    16fc:	93 8d       	ldd	r25, Z+27	; 0x1b
    16fe:	29 17       	cp	r18, r25
    1700:	18 f0       	brcs	.+6      	; 0x1708 <xQueueGenericSend+0x46>
    1702:	f2 e0       	ldi	r31, 0x02	; 2
    1704:	ff 12       	cpse	r15, r31
    1706:	14 c0       	rjmp	.+40     	; 0x1730 <xQueueGenericSend+0x6e>
    1708:	4f 2d       	mov	r20, r15
    170a:	b6 01       	movw	r22, r12
    170c:	c8 01       	movw	r24, r16
    170e:	0e 94 4f 0a 	call	0x149e	; 0x149e <prvCopyDataToQueue>
    1712:	f8 01       	movw	r30, r16
    1714:	91 89       	ldd	r25, Z+17	; 0x11
    1716:	99 23       	and	r25, r25
    1718:	21 f0       	breq	.+8      	; 0x1722 <xQueueGenericSend+0x60>
    171a:	c8 01       	movw	r24, r16
    171c:	41 96       	adiw	r24, 0x11	; 17
    171e:	0e 94 4c 06 	call	0xc98	; 0xc98 <xTaskRemoveFromEventList>
    1722:	81 11       	cpse	r24, r1
    1724:	0e 94 d4 12 	call	0x25a8	; 0x25a8 <vPortYield>
    1728:	0f 90       	pop	r0
    172a:	0f be       	out	0x3f, r0	; 63
    172c:	81 e0       	ldi	r24, 0x01	; 1
    172e:	50 c0       	rjmp	.+160    	; 0x17d0 <xQueueGenericSend+0x10e>
    1730:	2c 81       	ldd	r18, Y+4	; 0x04
    1732:	3d 81       	ldd	r19, Y+5	; 0x05
    1734:	23 2b       	or	r18, r19
    1736:	19 f4       	brne	.+6      	; 0x173e <xQueueGenericSend+0x7c>
    1738:	0f 90       	pop	r0
    173a:	0f be       	out	0x3f, r0	; 63
    173c:	48 c0       	rjmp	.+144    	; 0x17ce <xQueueGenericSend+0x10c>
    173e:	81 11       	cpse	r24, r1
    1740:	04 c0       	rjmp	.+8      	; 0x174a <xQueueGenericSend+0x88>
    1742:	ce 01       	movw	r24, r28
    1744:	01 96       	adiw	r24, 0x01	; 1
    1746:	0e 94 ce 06 	call	0xd9c	; 0xd9c <vTaskInternalSetTimeOutState>
    174a:	0f 90       	pop	r0
    174c:	0f be       	out	0x3f, r0	; 63
    174e:	0e 94 02 04 	call	0x804	; 0x804 <vTaskSuspendAll>
    1752:	0f b6       	in	r0, 0x3f	; 63
    1754:	f8 94       	cli
    1756:	0f 92       	push	r0
    1758:	f8 01       	movw	r30, r16
    175a:	85 8d       	ldd	r24, Z+29	; 0x1d
    175c:	8f 3f       	cpi	r24, 0xFF	; 255
    175e:	09 f4       	brne	.+2      	; 0x1762 <xQueueGenericSend+0xa0>
    1760:	15 8e       	std	Z+29, r1	; 0x1d
    1762:	f8 01       	movw	r30, r16
    1764:	86 8d       	ldd	r24, Z+30	; 0x1e
    1766:	8f 3f       	cpi	r24, 0xFF	; 255
    1768:	09 f4       	brne	.+2      	; 0x176c <xQueueGenericSend+0xaa>
    176a:	16 8e       	std	Z+30, r1	; 0x1e
    176c:	0f 90       	pop	r0
    176e:	0f be       	out	0x3f, r0	; 63
    1770:	be 01       	movw	r22, r28
    1772:	6c 5f       	subi	r22, 0xFC	; 252
    1774:	7f 4f       	sbci	r23, 0xFF	; 255
    1776:	ce 01       	movw	r24, r28
    1778:	01 96       	adiw	r24, 0x01	; 1
    177a:	0e 94 d9 06 	call	0xdb2	; 0xdb2 <xTaskCheckForTimeOut>
    177e:	81 11       	cpse	r24, r1
    1780:	21 c0       	rjmp	.+66     	; 0x17c4 <xQueueGenericSend+0x102>
    1782:	0f b6       	in	r0, 0x3f	; 63
    1784:	f8 94       	cli
    1786:	0f 92       	push	r0
    1788:	f8 01       	movw	r30, r16
    178a:	92 8d       	ldd	r25, Z+26	; 0x1a
    178c:	0f 90       	pop	r0
    178e:	0f be       	out	0x3f, r0	; 63
    1790:	83 8d       	ldd	r24, Z+27	; 0x1b
    1792:	98 13       	cpse	r25, r24
    1794:	11 c0       	rjmp	.+34     	; 0x17b8 <xQueueGenericSend+0xf6>
    1796:	6c 81       	ldd	r22, Y+4	; 0x04
    1798:	7d 81       	ldd	r23, Y+5	; 0x05
    179a:	c5 01       	movw	r24, r10
    179c:	0e 94 23 06 	call	0xc46	; 0xc46 <vTaskPlaceOnEventList>
    17a0:	c8 01       	movw	r24, r16
    17a2:	0e 94 bc 0a 	call	0x1578	; 0x1578 <prvUnlockQueue>
    17a6:	0e 94 ce 04 	call	0x99c	; 0x99c <xTaskResumeAll>
    17aa:	88 23       	and	r24, r24
    17ac:	11 f0       	breq	.+4      	; 0x17b2 <xQueueGenericSend+0xf0>
    17ae:	81 e0       	ldi	r24, 0x01	; 1
    17b0:	a0 cf       	rjmp	.-192    	; 0x16f2 <xQueueGenericSend+0x30>
    17b2:	0e 94 d4 12 	call	0x25a8	; 0x25a8 <vPortYield>
    17b6:	fb cf       	rjmp	.-10     	; 0x17ae <xQueueGenericSend+0xec>
    17b8:	c8 01       	movw	r24, r16
    17ba:	0e 94 bc 0a 	call	0x1578	; 0x1578 <prvUnlockQueue>
    17be:	0e 94 ce 04 	call	0x99c	; 0x99c <xTaskResumeAll>
    17c2:	f5 cf       	rjmp	.-22     	; 0x17ae <xQueueGenericSend+0xec>
    17c4:	c8 01       	movw	r24, r16
    17c6:	0e 94 bc 0a 	call	0x1578	; 0x1578 <prvUnlockQueue>
    17ca:	0e 94 ce 04 	call	0x99c	; 0x99c <xTaskResumeAll>
    17ce:	80 e0       	ldi	r24, 0x00	; 0
    17d0:	0f 90       	pop	r0
    17d2:	0f 90       	pop	r0
    17d4:	0f 90       	pop	r0
    17d6:	0f 90       	pop	r0
    17d8:	0f 90       	pop	r0
    17da:	df 91       	pop	r29
    17dc:	cf 91       	pop	r28
    17de:	1f 91       	pop	r17
    17e0:	0f 91       	pop	r16
    17e2:	ff 90       	pop	r15
    17e4:	df 90       	pop	r13
    17e6:	cf 90       	pop	r12
    17e8:	bf 90       	pop	r11
    17ea:	af 90       	pop	r10
    17ec:	08 95       	ret

000017ee <xQueueCreateMutex>:
    17ee:	cf 93       	push	r28
    17f0:	df 93       	push	r29
    17f2:	48 2f       	mov	r20, r24
    17f4:	60 e0       	ldi	r22, 0x00	; 0
    17f6:	81 e0       	ldi	r24, 0x01	; 1
    17f8:	0e 94 39 0b 	call	0x1672	; 0x1672 <xQueueGenericCreate>
    17fc:	ec 01       	movw	r28, r24
    17fe:	00 97       	sbiw	r24, 0x00	; 0
    1800:	61 f0       	breq	.+24     	; 0x181a <xQueueCreateMutex+0x2c>
    1802:	1d 82       	std	Y+5, r1	; 0x05
    1804:	1c 82       	std	Y+4, r1	; 0x04
    1806:	19 82       	std	Y+1, r1	; 0x01
    1808:	18 82       	st	Y, r1
    180a:	1e 82       	std	Y+6, r1	; 0x06
    180c:	20 e0       	ldi	r18, 0x00	; 0
    180e:	40 e0       	ldi	r20, 0x00	; 0
    1810:	50 e0       	ldi	r21, 0x00	; 0
    1812:	60 e0       	ldi	r22, 0x00	; 0
    1814:	70 e0       	ldi	r23, 0x00	; 0
    1816:	0e 94 61 0b 	call	0x16c2	; 0x16c2 <xQueueGenericSend>
    181a:	ce 01       	movw	r24, r28
    181c:	df 91       	pop	r29
    181e:	cf 91       	pop	r28
    1820:	08 95       	ret

00001822 <xQueueGenericSendFromISR>:
    1822:	ef 92       	push	r14
    1824:	ff 92       	push	r15
    1826:	1f 93       	push	r17
    1828:	cf 93       	push	r28
    182a:	df 93       	push	r29
    182c:	ec 01       	movw	r28, r24
    182e:	9a 8d       	ldd	r25, Y+26	; 0x1a
    1830:	8b 8d       	ldd	r24, Y+27	; 0x1b
    1832:	98 17       	cp	r25, r24
    1834:	10 f0       	brcs	.+4      	; 0x183a <xQueueGenericSendFromISR+0x18>
    1836:	22 30       	cpi	r18, 0x02	; 2
    1838:	e1 f4       	brne	.+56     	; 0x1872 <xQueueGenericSendFromISR+0x50>
    183a:	7a 01       	movw	r14, r20
    183c:	1e 8d       	ldd	r17, Y+30	; 0x1e
    183e:	42 2f       	mov	r20, r18
    1840:	ce 01       	movw	r24, r28
    1842:	0e 94 4f 0a 	call	0x149e	; 0x149e <prvCopyDataToQueue>
    1846:	1f 3f       	cpi	r17, 0xFF	; 255
    1848:	81 f4       	brne	.+32     	; 0x186a <xQueueGenericSendFromISR+0x48>
    184a:	89 89       	ldd	r24, Y+17	; 0x11
    184c:	88 23       	and	r24, r24
    184e:	79 f0       	breq	.+30     	; 0x186e <xQueueGenericSendFromISR+0x4c>
    1850:	ce 01       	movw	r24, r28
    1852:	41 96       	adiw	r24, 0x11	; 17
    1854:	0e 94 4c 06 	call	0xc98	; 0xc98 <xTaskRemoveFromEventList>
    1858:	88 23       	and	r24, r24
    185a:	49 f0       	breq	.+18     	; 0x186e <xQueueGenericSendFromISR+0x4c>
    185c:	e1 14       	cp	r14, r1
    185e:	f1 04       	cpc	r15, r1
    1860:	31 f0       	breq	.+12     	; 0x186e <xQueueGenericSendFromISR+0x4c>
    1862:	81 e0       	ldi	r24, 0x01	; 1
    1864:	f7 01       	movw	r30, r14
    1866:	80 83       	st	Z, r24
    1868:	05 c0       	rjmp	.+10     	; 0x1874 <xQueueGenericSendFromISR+0x52>
    186a:	1f 5f       	subi	r17, 0xFF	; 255
    186c:	1e 8f       	std	Y+30, r17	; 0x1e
    186e:	81 e0       	ldi	r24, 0x01	; 1
    1870:	01 c0       	rjmp	.+2      	; 0x1874 <xQueueGenericSendFromISR+0x52>
    1872:	80 e0       	ldi	r24, 0x00	; 0
    1874:	df 91       	pop	r29
    1876:	cf 91       	pop	r28
    1878:	1f 91       	pop	r17
    187a:	ff 90       	pop	r15
    187c:	ef 90       	pop	r14
    187e:	08 95       	ret

00001880 <xQueueGiveFromISR>:
    1880:	cf 93       	push	r28
    1882:	df 93       	push	r29
    1884:	fc 01       	movw	r30, r24
    1886:	92 8d       	ldd	r25, Z+26	; 0x1a
    1888:	83 8d       	ldd	r24, Z+27	; 0x1b
    188a:	98 17       	cp	r25, r24
    188c:	c0 f4       	brcc	.+48     	; 0x18be <xQueueGiveFromISR+0x3e>
    188e:	86 8d       	ldd	r24, Z+30	; 0x1e
    1890:	9f 5f       	subi	r25, 0xFF	; 255
    1892:	92 8f       	std	Z+26, r25	; 0x1a
    1894:	8f 3f       	cpi	r24, 0xFF	; 255
    1896:	79 f4       	brne	.+30     	; 0x18b6 <xQueueGiveFromISR+0x36>
    1898:	81 89       	ldd	r24, Z+17	; 0x11
    189a:	88 23       	and	r24, r24
    189c:	71 f0       	breq	.+28     	; 0x18ba <xQueueGiveFromISR+0x3a>
    189e:	eb 01       	movw	r28, r22
    18a0:	cf 01       	movw	r24, r30
    18a2:	41 96       	adiw	r24, 0x11	; 17
    18a4:	0e 94 4c 06 	call	0xc98	; 0xc98 <xTaskRemoveFromEventList>
    18a8:	88 23       	and	r24, r24
    18aa:	39 f0       	breq	.+14     	; 0x18ba <xQueueGiveFromISR+0x3a>
    18ac:	20 97       	sbiw	r28, 0x00	; 0
    18ae:	29 f0       	breq	.+10     	; 0x18ba <xQueueGiveFromISR+0x3a>
    18b0:	81 e0       	ldi	r24, 0x01	; 1
    18b2:	88 83       	st	Y, r24
    18b4:	05 c0       	rjmp	.+10     	; 0x18c0 <xQueueGiveFromISR+0x40>
    18b6:	8f 5f       	subi	r24, 0xFF	; 255
    18b8:	86 8f       	std	Z+30, r24	; 0x1e
    18ba:	81 e0       	ldi	r24, 0x01	; 1
    18bc:	01 c0       	rjmp	.+2      	; 0x18c0 <xQueueGiveFromISR+0x40>
    18be:	80 e0       	ldi	r24, 0x00	; 0
    18c0:	df 91       	pop	r29
    18c2:	cf 91       	pop	r28
    18c4:	08 95       	ret

000018c6 <xQueueReceive>:
    18c6:	af 92       	push	r10
    18c8:	bf 92       	push	r11
    18ca:	cf 92       	push	r12
    18cc:	df 92       	push	r13
    18ce:	ff 92       	push	r15
    18d0:	0f 93       	push	r16
    18d2:	1f 93       	push	r17
    18d4:	cf 93       	push	r28
    18d6:	df 93       	push	r29
    18d8:	00 d0       	rcall	.+0      	; 0x18da <xQueueReceive+0x14>
    18da:	00 d0       	rcall	.+0      	; 0x18dc <xQueueReceive+0x16>
    18dc:	1f 92       	push	r1
    18de:	cd b7       	in	r28, 0x3d	; 61
    18e0:	de b7       	in	r29, 0x3e	; 62
    18e2:	8c 01       	movw	r16, r24
    18e4:	6b 01       	movw	r12, r22
    18e6:	5d 83       	std	Y+5, r21	; 0x05
    18e8:	4c 83       	std	Y+4, r20	; 0x04
    18ea:	80 e0       	ldi	r24, 0x00	; 0
    18ec:	58 01       	movw	r10, r16
    18ee:	91 e1       	ldi	r25, 0x11	; 17
    18f0:	a9 0e       	add	r10, r25
    18f2:	b1 1c       	adc	r11, r1
    18f4:	0f b6       	in	r0, 0x3f	; 63
    18f6:	f8 94       	cli
    18f8:	0f 92       	push	r0
    18fa:	f8 01       	movw	r30, r16
    18fc:	f2 8c       	ldd	r15, Z+26	; 0x1a
    18fe:	ff 20       	and	r15, r15
    1900:	a9 f0       	breq	.+42     	; 0x192c <xQueueReceive+0x66>
    1902:	b6 01       	movw	r22, r12
    1904:	c8 01       	movw	r24, r16
    1906:	0e 94 a2 0a 	call	0x1544	; 0x1544 <prvCopyDataFromQueue>
    190a:	fa 94       	dec	r15
    190c:	f8 01       	movw	r30, r16
    190e:	f2 8e       	std	Z+26, r15	; 0x1a
    1910:	80 85       	ldd	r24, Z+8	; 0x08
    1912:	88 23       	and	r24, r24
    1914:	39 f0       	breq	.+14     	; 0x1924 <xQueueReceive+0x5e>
    1916:	c8 01       	movw	r24, r16
    1918:	08 96       	adiw	r24, 0x08	; 8
    191a:	0e 94 4c 06 	call	0xc98	; 0xc98 <xTaskRemoveFromEventList>
    191e:	81 11       	cpse	r24, r1
    1920:	0e 94 d4 12 	call	0x25a8	; 0x25a8 <vPortYield>
    1924:	0f 90       	pop	r0
    1926:	0f be       	out	0x3f, r0	; 63
    1928:	81 e0       	ldi	r24, 0x01	; 1
    192a:	50 c0       	rjmp	.+160    	; 0x19cc <xQueueReceive+0x106>
    192c:	2c 81       	ldd	r18, Y+4	; 0x04
    192e:	3d 81       	ldd	r19, Y+5	; 0x05
    1930:	23 2b       	or	r18, r19
    1932:	19 f4       	brne	.+6      	; 0x193a <xQueueReceive+0x74>
    1934:	0f 90       	pop	r0
    1936:	0f be       	out	0x3f, r0	; 63
    1938:	48 c0       	rjmp	.+144    	; 0x19ca <xQueueReceive+0x104>
    193a:	81 11       	cpse	r24, r1
    193c:	04 c0       	rjmp	.+8      	; 0x1946 <xQueueReceive+0x80>
    193e:	ce 01       	movw	r24, r28
    1940:	01 96       	adiw	r24, 0x01	; 1
    1942:	0e 94 ce 06 	call	0xd9c	; 0xd9c <vTaskInternalSetTimeOutState>
    1946:	0f 90       	pop	r0
    1948:	0f be       	out	0x3f, r0	; 63
    194a:	0e 94 02 04 	call	0x804	; 0x804 <vTaskSuspendAll>
    194e:	0f b6       	in	r0, 0x3f	; 63
    1950:	f8 94       	cli
    1952:	0f 92       	push	r0
    1954:	f8 01       	movw	r30, r16
    1956:	85 8d       	ldd	r24, Z+29	; 0x1d
    1958:	8f 3f       	cpi	r24, 0xFF	; 255
    195a:	09 f4       	brne	.+2      	; 0x195e <xQueueReceive+0x98>
    195c:	15 8e       	std	Z+29, r1	; 0x1d
    195e:	f8 01       	movw	r30, r16
    1960:	86 8d       	ldd	r24, Z+30	; 0x1e
    1962:	8f 3f       	cpi	r24, 0xFF	; 255
    1964:	09 f4       	brne	.+2      	; 0x1968 <xQueueReceive+0xa2>
    1966:	16 8e       	std	Z+30, r1	; 0x1e
    1968:	0f 90       	pop	r0
    196a:	0f be       	out	0x3f, r0	; 63
    196c:	be 01       	movw	r22, r28
    196e:	6c 5f       	subi	r22, 0xFC	; 252
    1970:	7f 4f       	sbci	r23, 0xFF	; 255
    1972:	ce 01       	movw	r24, r28
    1974:	01 96       	adiw	r24, 0x01	; 1
    1976:	0e 94 d9 06 	call	0xdb2	; 0xdb2 <xTaskCheckForTimeOut>
    197a:	81 11       	cpse	r24, r1
    197c:	1c c0       	rjmp	.+56     	; 0x19b6 <xQueueReceive+0xf0>
    197e:	c8 01       	movw	r24, r16
    1980:	0e 94 44 0a 	call	0x1488	; 0x1488 <prvIsQueueEmpty>
    1984:	88 23       	and	r24, r24
    1986:	89 f0       	breq	.+34     	; 0x19aa <xQueueReceive+0xe4>
    1988:	6c 81       	ldd	r22, Y+4	; 0x04
    198a:	7d 81       	ldd	r23, Y+5	; 0x05
    198c:	c5 01       	movw	r24, r10
    198e:	0e 94 23 06 	call	0xc46	; 0xc46 <vTaskPlaceOnEventList>
    1992:	c8 01       	movw	r24, r16
    1994:	0e 94 bc 0a 	call	0x1578	; 0x1578 <prvUnlockQueue>
    1998:	0e 94 ce 04 	call	0x99c	; 0x99c <xTaskResumeAll>
    199c:	88 23       	and	r24, r24
    199e:	11 f0       	breq	.+4      	; 0x19a4 <xQueueReceive+0xde>
    19a0:	81 e0       	ldi	r24, 0x01	; 1
    19a2:	a8 cf       	rjmp	.-176    	; 0x18f4 <xQueueReceive+0x2e>
    19a4:	0e 94 d4 12 	call	0x25a8	; 0x25a8 <vPortYield>
    19a8:	fb cf       	rjmp	.-10     	; 0x19a0 <xQueueReceive+0xda>
    19aa:	c8 01       	movw	r24, r16
    19ac:	0e 94 bc 0a 	call	0x1578	; 0x1578 <prvUnlockQueue>
    19b0:	0e 94 ce 04 	call	0x99c	; 0x99c <xTaskResumeAll>
    19b4:	f5 cf       	rjmp	.-22     	; 0x19a0 <xQueueReceive+0xda>
    19b6:	c8 01       	movw	r24, r16
    19b8:	0e 94 bc 0a 	call	0x1578	; 0x1578 <prvUnlockQueue>
    19bc:	0e 94 ce 04 	call	0x99c	; 0x99c <xTaskResumeAll>
    19c0:	c8 01       	movw	r24, r16
    19c2:	0e 94 44 0a 	call	0x1488	; 0x1488 <prvIsQueueEmpty>
    19c6:	88 23       	and	r24, r24
    19c8:	59 f3       	breq	.-42     	; 0x19a0 <xQueueReceive+0xda>
    19ca:	80 e0       	ldi	r24, 0x00	; 0
    19cc:	0f 90       	pop	r0
    19ce:	0f 90       	pop	r0
    19d0:	0f 90       	pop	r0
    19d2:	0f 90       	pop	r0
    19d4:	0f 90       	pop	r0
    19d6:	df 91       	pop	r29
    19d8:	cf 91       	pop	r28
    19da:	1f 91       	pop	r17
    19dc:	0f 91       	pop	r16
    19de:	ff 90       	pop	r15
    19e0:	df 90       	pop	r13
    19e2:	cf 90       	pop	r12
    19e4:	bf 90       	pop	r11
    19e6:	af 90       	pop	r10
    19e8:	08 95       	ret

000019ea <xQueueSemaphoreTake>:
    19ea:	cf 92       	push	r12
    19ec:	df 92       	push	r13
    19ee:	ff 92       	push	r15
    19f0:	0f 93       	push	r16
    19f2:	1f 93       	push	r17
    19f4:	cf 93       	push	r28
    19f6:	df 93       	push	r29
    19f8:	00 d0       	rcall	.+0      	; 0x19fa <xQueueSemaphoreTake+0x10>
    19fa:	00 d0       	rcall	.+0      	; 0x19fc <xQueueSemaphoreTake+0x12>
    19fc:	1f 92       	push	r1
    19fe:	cd b7       	in	r28, 0x3d	; 61
    1a00:	de b7       	in	r29, 0x3e	; 62
    1a02:	8c 01       	movw	r16, r24
    1a04:	7d 83       	std	Y+5, r23	; 0x05
    1a06:	6c 83       	std	Y+4, r22	; 0x04
    1a08:	f1 2c       	mov	r15, r1
    1a0a:	90 e0       	ldi	r25, 0x00	; 0
    1a0c:	68 01       	movw	r12, r16
    1a0e:	81 e1       	ldi	r24, 0x11	; 17
    1a10:	c8 0e       	add	r12, r24
    1a12:	d1 1c       	adc	r13, r1
    1a14:	0f b6       	in	r0, 0x3f	; 63
    1a16:	f8 94       	cli
    1a18:	0f 92       	push	r0
    1a1a:	d8 01       	movw	r26, r16
    1a1c:	5a 96       	adiw	r26, 0x1a	; 26
    1a1e:	8c 91       	ld	r24, X
    1a20:	5a 97       	sbiw	r26, 0x1a	; 26
    1a22:	88 23       	and	r24, r24
    1a24:	e9 f0       	breq	.+58     	; 0x1a60 <xQueueSemaphoreTake+0x76>
    1a26:	81 50       	subi	r24, 0x01	; 1
    1a28:	5a 96       	adiw	r26, 0x1a	; 26
    1a2a:	8c 93       	st	X, r24
    1a2c:	5a 97       	sbiw	r26, 0x1a	; 26
    1a2e:	8d 91       	ld	r24, X+
    1a30:	9c 91       	ld	r25, X
    1a32:	89 2b       	or	r24, r25
    1a34:	29 f4       	brne	.+10     	; 0x1a40 <xQueueSemaphoreTake+0x56>
    1a36:	0e 94 10 08 	call	0x1020	; 0x1020 <pvTaskIncrementMutexHeldCount>
    1a3a:	f8 01       	movw	r30, r16
    1a3c:	95 83       	std	Z+5, r25	; 0x05
    1a3e:	84 83       	std	Z+4, r24	; 0x04
    1a40:	d8 01       	movw	r26, r16
    1a42:	18 96       	adiw	r26, 0x08	; 8
    1a44:	8c 91       	ld	r24, X
    1a46:	88 23       	and	r24, r24
    1a48:	39 f0       	breq	.+14     	; 0x1a58 <xQueueSemaphoreTake+0x6e>
    1a4a:	c8 01       	movw	r24, r16
    1a4c:	08 96       	adiw	r24, 0x08	; 8
    1a4e:	0e 94 4c 06 	call	0xc98	; 0xc98 <xTaskRemoveFromEventList>
    1a52:	81 11       	cpse	r24, r1
    1a54:	0e 94 d4 12 	call	0x25a8	; 0x25a8 <vPortYield>
    1a58:	0f 90       	pop	r0
    1a5a:	0f be       	out	0x3f, r0	; 63
    1a5c:	81 e0       	ldi	r24, 0x01	; 1
    1a5e:	7a c0       	rjmp	.+244    	; 0x1b54 <xQueueSemaphoreTake+0x16a>
    1a60:	2c 81       	ldd	r18, Y+4	; 0x04
    1a62:	3d 81       	ldd	r19, Y+5	; 0x05
    1a64:	23 2b       	or	r18, r19
    1a66:	09 f4       	brne	.+2      	; 0x1a6a <xQueueSemaphoreTake+0x80>
    1a68:	72 c0       	rjmp	.+228    	; 0x1b4e <xQueueSemaphoreTake+0x164>
    1a6a:	91 11       	cpse	r25, r1
    1a6c:	04 c0       	rjmp	.+8      	; 0x1a76 <xQueueSemaphoreTake+0x8c>
    1a6e:	ce 01       	movw	r24, r28
    1a70:	01 96       	adiw	r24, 0x01	; 1
    1a72:	0e 94 ce 06 	call	0xd9c	; 0xd9c <vTaskInternalSetTimeOutState>
    1a76:	0f 90       	pop	r0
    1a78:	0f be       	out	0x3f, r0	; 63
    1a7a:	0e 94 02 04 	call	0x804	; 0x804 <vTaskSuspendAll>
    1a7e:	0f b6       	in	r0, 0x3f	; 63
    1a80:	f8 94       	cli
    1a82:	0f 92       	push	r0
    1a84:	f8 01       	movw	r30, r16
    1a86:	85 8d       	ldd	r24, Z+29	; 0x1d
    1a88:	8f 3f       	cpi	r24, 0xFF	; 255
    1a8a:	09 f4       	brne	.+2      	; 0x1a8e <xQueueSemaphoreTake+0xa4>
    1a8c:	15 8e       	std	Z+29, r1	; 0x1d
    1a8e:	d8 01       	movw	r26, r16
    1a90:	5e 96       	adiw	r26, 0x1e	; 30
    1a92:	8c 91       	ld	r24, X
    1a94:	5e 97       	sbiw	r26, 0x1e	; 30
    1a96:	8f 3f       	cpi	r24, 0xFF	; 255
    1a98:	11 f4       	brne	.+4      	; 0x1a9e <xQueueSemaphoreTake+0xb4>
    1a9a:	5e 96       	adiw	r26, 0x1e	; 30
    1a9c:	1c 92       	st	X, r1
    1a9e:	0f 90       	pop	r0
    1aa0:	0f be       	out	0x3f, r0	; 63
    1aa2:	be 01       	movw	r22, r28
    1aa4:	6c 5f       	subi	r22, 0xFC	; 252
    1aa6:	7f 4f       	sbci	r23, 0xFF	; 255
    1aa8:	ce 01       	movw	r24, r28
    1aaa:	01 96       	adiw	r24, 0x01	; 1
    1aac:	0e 94 d9 06 	call	0xdb2	; 0xdb2 <xTaskCheckForTimeOut>
    1ab0:	81 11       	cpse	r24, r1
    1ab2:	2b c0       	rjmp	.+86     	; 0x1b0a <xQueueSemaphoreTake+0x120>
    1ab4:	c8 01       	movw	r24, r16
    1ab6:	0e 94 44 0a 	call	0x1488	; 0x1488 <prvIsQueueEmpty>
    1aba:	88 23       	and	r24, r24
    1abc:	01 f1       	breq	.+64     	; 0x1afe <xQueueSemaphoreTake+0x114>
    1abe:	f8 01       	movw	r30, r16
    1ac0:	80 81       	ld	r24, Z
    1ac2:	91 81       	ldd	r25, Z+1	; 0x01
    1ac4:	89 2b       	or	r24, r25
    1ac6:	51 f4       	brne	.+20     	; 0x1adc <xQueueSemaphoreTake+0xf2>
    1ac8:	0f b6       	in	r0, 0x3f	; 63
    1aca:	f8 94       	cli
    1acc:	0f 92       	push	r0
    1ace:	84 81       	ldd	r24, Z+4	; 0x04
    1ad0:	95 81       	ldd	r25, Z+5	; 0x05
    1ad2:	0e 94 15 07 	call	0xe2a	; 0xe2a <xTaskPriorityInherit>
    1ad6:	f8 2e       	mov	r15, r24
    1ad8:	0f 90       	pop	r0
    1ada:	0f be       	out	0x3f, r0	; 63
    1adc:	6c 81       	ldd	r22, Y+4	; 0x04
    1ade:	7d 81       	ldd	r23, Y+5	; 0x05
    1ae0:	c6 01       	movw	r24, r12
    1ae2:	0e 94 23 06 	call	0xc46	; 0xc46 <vTaskPlaceOnEventList>
    1ae6:	c8 01       	movw	r24, r16
    1ae8:	0e 94 bc 0a 	call	0x1578	; 0x1578 <prvUnlockQueue>
    1aec:	0e 94 ce 04 	call	0x99c	; 0x99c <xTaskResumeAll>
    1af0:	88 23       	and	r24, r24
    1af2:	11 f0       	breq	.+4      	; 0x1af8 <xQueueSemaphoreTake+0x10e>
    1af4:	91 e0       	ldi	r25, 0x01	; 1
    1af6:	8e cf       	rjmp	.-228    	; 0x1a14 <xQueueSemaphoreTake+0x2a>
    1af8:	0e 94 d4 12 	call	0x25a8	; 0x25a8 <vPortYield>
    1afc:	fb cf       	rjmp	.-10     	; 0x1af4 <xQueueSemaphoreTake+0x10a>
    1afe:	c8 01       	movw	r24, r16
    1b00:	0e 94 bc 0a 	call	0x1578	; 0x1578 <prvUnlockQueue>
    1b04:	0e 94 ce 04 	call	0x99c	; 0x99c <xTaskResumeAll>
    1b08:	f5 cf       	rjmp	.-22     	; 0x1af4 <xQueueSemaphoreTake+0x10a>
    1b0a:	c8 01       	movw	r24, r16
    1b0c:	0e 94 bc 0a 	call	0x1578	; 0x1578 <prvUnlockQueue>
    1b10:	0e 94 ce 04 	call	0x99c	; 0x99c <xTaskResumeAll>
    1b14:	c8 01       	movw	r24, r16
    1b16:	0e 94 44 0a 	call	0x1488	; 0x1488 <prvIsQueueEmpty>
    1b1a:	88 23       	and	r24, r24
    1b1c:	59 f3       	breq	.-42     	; 0x1af4 <xQueueSemaphoreTake+0x10a>
    1b1e:	ff 20       	and	r15, r15
    1b20:	c1 f0       	breq	.+48     	; 0x1b52 <xQueueSemaphoreTake+0x168>
    1b22:	0f b6       	in	r0, 0x3f	; 63
    1b24:	f8 94       	cli
    1b26:	0f 92       	push	r0
    1b28:	f8 01       	movw	r30, r16
    1b2a:	81 89       	ldd	r24, Z+17	; 0x11
    1b2c:	88 23       	and	r24, r24
    1b2e:	39 f0       	breq	.+14     	; 0x1b3e <xQueueSemaphoreTake+0x154>
    1b30:	06 88       	ldd	r0, Z+22	; 0x16
    1b32:	f7 89       	ldd	r31, Z+23	; 0x17
    1b34:	e0 2d       	mov	r30, r0
    1b36:	80 81       	ld	r24, Z
    1b38:	64 e0       	ldi	r22, 0x04	; 4
    1b3a:	68 1b       	sub	r22, r24
    1b3c:	01 c0       	rjmp	.+2      	; 0x1b40 <xQueueSemaphoreTake+0x156>
    1b3e:	60 e0       	ldi	r22, 0x00	; 0
    1b40:	d8 01       	movw	r26, r16
    1b42:	14 96       	adiw	r26, 0x04	; 4
    1b44:	8d 91       	ld	r24, X+
    1b46:	9c 91       	ld	r25, X
    1b48:	15 97       	sbiw	r26, 0x05	; 5
    1b4a:	0e 94 b2 07 	call	0xf64	; 0xf64 <vTaskPriorityDisinheritAfterTimeout>
    1b4e:	0f 90       	pop	r0
    1b50:	0f be       	out	0x3f, r0	; 63
    1b52:	80 e0       	ldi	r24, 0x00	; 0
    1b54:	0f 90       	pop	r0
    1b56:	0f 90       	pop	r0
    1b58:	0f 90       	pop	r0
    1b5a:	0f 90       	pop	r0
    1b5c:	0f 90       	pop	r0
    1b5e:	df 91       	pop	r29
    1b60:	cf 91       	pop	r28
    1b62:	1f 91       	pop	r17
    1b64:	0f 91       	pop	r16
    1b66:	ff 90       	pop	r15
    1b68:	df 90       	pop	r13
    1b6a:	cf 90       	pop	r12
    1b6c:	08 95       	ret

00001b6e <xQueuePeek>:
    1b6e:	cf 92       	push	r12
    1b70:	df 92       	push	r13
    1b72:	ef 92       	push	r14
    1b74:	ff 92       	push	r15
    1b76:	0f 93       	push	r16
    1b78:	1f 93       	push	r17
    1b7a:	cf 93       	push	r28
    1b7c:	df 93       	push	r29
    1b7e:	00 d0       	rcall	.+0      	; 0x1b80 <xQueuePeek+0x12>
    1b80:	00 d0       	rcall	.+0      	; 0x1b82 <xQueuePeek+0x14>
    1b82:	1f 92       	push	r1
    1b84:	cd b7       	in	r28, 0x3d	; 61
    1b86:	de b7       	in	r29, 0x3e	; 62
    1b88:	8c 01       	movw	r16, r24
    1b8a:	7b 01       	movw	r14, r22
    1b8c:	5d 83       	std	Y+5, r21	; 0x05
    1b8e:	4c 83       	std	Y+4, r20	; 0x04
    1b90:	80 e0       	ldi	r24, 0x00	; 0
    1b92:	68 01       	movw	r12, r16
    1b94:	91 e1       	ldi	r25, 0x11	; 17
    1b96:	c9 0e       	add	r12, r25
    1b98:	d1 1c       	adc	r13, r1
    1b9a:	0f b6       	in	r0, 0x3f	; 63
    1b9c:	f8 94       	cli
    1b9e:	0f 92       	push	r0
    1ba0:	f8 01       	movw	r30, r16
    1ba2:	92 8d       	ldd	r25, Z+26	; 0x1a
    1ba4:	99 23       	and	r25, r25
    1ba6:	b9 f0       	breq	.+46     	; 0x1bd6 <xQueuePeek+0x68>
    1ba8:	c6 80       	ldd	r12, Z+6	; 0x06
    1baa:	d7 80       	ldd	r13, Z+7	; 0x07
    1bac:	b7 01       	movw	r22, r14
    1bae:	c8 01       	movw	r24, r16
    1bb0:	0e 94 a2 0a 	call	0x1544	; 0x1544 <prvCopyDataFromQueue>
    1bb4:	f8 01       	movw	r30, r16
    1bb6:	d7 82       	std	Z+7, r13	; 0x07
    1bb8:	c6 82       	std	Z+6, r12	; 0x06
    1bba:	81 89       	ldd	r24, Z+17	; 0x11
    1bbc:	88 23       	and	r24, r24
    1bbe:	39 f0       	breq	.+14     	; 0x1bce <xQueuePeek+0x60>
    1bc0:	c8 01       	movw	r24, r16
    1bc2:	41 96       	adiw	r24, 0x11	; 17
    1bc4:	0e 94 4c 06 	call	0xc98	; 0xc98 <xTaskRemoveFromEventList>
    1bc8:	81 11       	cpse	r24, r1
    1bca:	0e 94 d4 12 	call	0x25a8	; 0x25a8 <vPortYield>
    1bce:	0f 90       	pop	r0
    1bd0:	0f be       	out	0x3f, r0	; 63
    1bd2:	81 e0       	ldi	r24, 0x01	; 1
    1bd4:	50 c0       	rjmp	.+160    	; 0x1c76 <xQueuePeek+0x108>
    1bd6:	2c 81       	ldd	r18, Y+4	; 0x04
    1bd8:	3d 81       	ldd	r19, Y+5	; 0x05
    1bda:	23 2b       	or	r18, r19
    1bdc:	19 f4       	brne	.+6      	; 0x1be4 <xQueuePeek+0x76>
    1bde:	0f 90       	pop	r0
    1be0:	0f be       	out	0x3f, r0	; 63
    1be2:	48 c0       	rjmp	.+144    	; 0x1c74 <xQueuePeek+0x106>
    1be4:	81 11       	cpse	r24, r1
    1be6:	04 c0       	rjmp	.+8      	; 0x1bf0 <xQueuePeek+0x82>
    1be8:	ce 01       	movw	r24, r28
    1bea:	01 96       	adiw	r24, 0x01	; 1
    1bec:	0e 94 ce 06 	call	0xd9c	; 0xd9c <vTaskInternalSetTimeOutState>
    1bf0:	0f 90       	pop	r0
    1bf2:	0f be       	out	0x3f, r0	; 63
    1bf4:	0e 94 02 04 	call	0x804	; 0x804 <vTaskSuspendAll>
    1bf8:	0f b6       	in	r0, 0x3f	; 63
    1bfa:	f8 94       	cli
    1bfc:	0f 92       	push	r0
    1bfe:	f8 01       	movw	r30, r16
    1c00:	85 8d       	ldd	r24, Z+29	; 0x1d
    1c02:	8f 3f       	cpi	r24, 0xFF	; 255
    1c04:	09 f4       	brne	.+2      	; 0x1c08 <xQueuePeek+0x9a>
    1c06:	15 8e       	std	Z+29, r1	; 0x1d
    1c08:	f8 01       	movw	r30, r16
    1c0a:	86 8d       	ldd	r24, Z+30	; 0x1e
    1c0c:	8f 3f       	cpi	r24, 0xFF	; 255
    1c0e:	09 f4       	brne	.+2      	; 0x1c12 <xQueuePeek+0xa4>
    1c10:	16 8e       	std	Z+30, r1	; 0x1e
    1c12:	0f 90       	pop	r0
    1c14:	0f be       	out	0x3f, r0	; 63
    1c16:	be 01       	movw	r22, r28
    1c18:	6c 5f       	subi	r22, 0xFC	; 252
    1c1a:	7f 4f       	sbci	r23, 0xFF	; 255
    1c1c:	ce 01       	movw	r24, r28
    1c1e:	01 96       	adiw	r24, 0x01	; 1
    1c20:	0e 94 d9 06 	call	0xdb2	; 0xdb2 <xTaskCheckForTimeOut>
    1c24:	81 11       	cpse	r24, r1
    1c26:	1c c0       	rjmp	.+56     	; 0x1c60 <xQueuePeek+0xf2>
    1c28:	c8 01       	movw	r24, r16
    1c2a:	0e 94 44 0a 	call	0x1488	; 0x1488 <prvIsQueueEmpty>
    1c2e:	88 23       	and	r24, r24
    1c30:	89 f0       	breq	.+34     	; 0x1c54 <xQueuePeek+0xe6>
    1c32:	6c 81       	ldd	r22, Y+4	; 0x04
    1c34:	7d 81       	ldd	r23, Y+5	; 0x05
    1c36:	c6 01       	movw	r24, r12
    1c38:	0e 94 23 06 	call	0xc46	; 0xc46 <vTaskPlaceOnEventList>
    1c3c:	c8 01       	movw	r24, r16
    1c3e:	0e 94 bc 0a 	call	0x1578	; 0x1578 <prvUnlockQueue>
    1c42:	0e 94 ce 04 	call	0x99c	; 0x99c <xTaskResumeAll>
    1c46:	88 23       	and	r24, r24
    1c48:	11 f0       	breq	.+4      	; 0x1c4e <xQueuePeek+0xe0>
    1c4a:	81 e0       	ldi	r24, 0x01	; 1
    1c4c:	a6 cf       	rjmp	.-180    	; 0x1b9a <xQueuePeek+0x2c>
    1c4e:	0e 94 d4 12 	call	0x25a8	; 0x25a8 <vPortYield>
    1c52:	fb cf       	rjmp	.-10     	; 0x1c4a <xQueuePeek+0xdc>
    1c54:	c8 01       	movw	r24, r16
    1c56:	0e 94 bc 0a 	call	0x1578	; 0x1578 <prvUnlockQueue>
    1c5a:	0e 94 ce 04 	call	0x99c	; 0x99c <xTaskResumeAll>
    1c5e:	f5 cf       	rjmp	.-22     	; 0x1c4a <xQueuePeek+0xdc>
    1c60:	c8 01       	movw	r24, r16
    1c62:	0e 94 bc 0a 	call	0x1578	; 0x1578 <prvUnlockQueue>
    1c66:	0e 94 ce 04 	call	0x99c	; 0x99c <xTaskResumeAll>
    1c6a:	c8 01       	movw	r24, r16
    1c6c:	0e 94 44 0a 	call	0x1488	; 0x1488 <prvIsQueueEmpty>
    1c70:	88 23       	and	r24, r24
    1c72:	59 f3       	breq	.-42     	; 0x1c4a <xQueuePeek+0xdc>
    1c74:	80 e0       	ldi	r24, 0x00	; 0
    1c76:	0f 90       	pop	r0
    1c78:	0f 90       	pop	r0
    1c7a:	0f 90       	pop	r0
    1c7c:	0f 90       	pop	r0
    1c7e:	0f 90       	pop	r0
    1c80:	df 91       	pop	r29
    1c82:	cf 91       	pop	r28
    1c84:	1f 91       	pop	r17
    1c86:	0f 91       	pop	r16
    1c88:	ff 90       	pop	r15
    1c8a:	ef 90       	pop	r14
    1c8c:	df 90       	pop	r13
    1c8e:	cf 90       	pop	r12
    1c90:	08 95       	ret

00001c92 <xQueueReceiveFromISR>:
    1c92:	ef 92       	push	r14
    1c94:	ff 92       	push	r15
    1c96:	0f 93       	push	r16
    1c98:	1f 93       	push	r17
    1c9a:	cf 93       	push	r28
    1c9c:	df 93       	push	r29
    1c9e:	fc 01       	movw	r30, r24
    1ca0:	02 8d       	ldd	r16, Z+26	; 0x1a
    1ca2:	00 23       	and	r16, r16
    1ca4:	e9 f0       	breq	.+58     	; 0x1ce0 <xQueueReceiveFromISR+0x4e>
    1ca6:	7a 01       	movw	r14, r20
    1ca8:	ec 01       	movw	r28, r24
    1caa:	15 8d       	ldd	r17, Z+29	; 0x1d
    1cac:	0e 94 a2 0a 	call	0x1544	; 0x1544 <prvCopyDataFromQueue>
    1cb0:	01 50       	subi	r16, 0x01	; 1
    1cb2:	0a 8f       	std	Y+26, r16	; 0x1a
    1cb4:	1f 3f       	cpi	r17, 0xFF	; 255
    1cb6:	81 f4       	brne	.+32     	; 0x1cd8 <xQueueReceiveFromISR+0x46>
    1cb8:	88 85       	ldd	r24, Y+8	; 0x08
    1cba:	88 23       	and	r24, r24
    1cbc:	79 f0       	breq	.+30     	; 0x1cdc <xQueueReceiveFromISR+0x4a>
    1cbe:	ce 01       	movw	r24, r28
    1cc0:	08 96       	adiw	r24, 0x08	; 8
    1cc2:	0e 94 4c 06 	call	0xc98	; 0xc98 <xTaskRemoveFromEventList>
    1cc6:	88 23       	and	r24, r24
    1cc8:	49 f0       	breq	.+18     	; 0x1cdc <xQueueReceiveFromISR+0x4a>
    1cca:	e1 14       	cp	r14, r1
    1ccc:	f1 04       	cpc	r15, r1
    1cce:	31 f0       	breq	.+12     	; 0x1cdc <xQueueReceiveFromISR+0x4a>
    1cd0:	81 e0       	ldi	r24, 0x01	; 1
    1cd2:	f7 01       	movw	r30, r14
    1cd4:	80 83       	st	Z, r24
    1cd6:	05 c0       	rjmp	.+10     	; 0x1ce2 <xQueueReceiveFromISR+0x50>
    1cd8:	1f 5f       	subi	r17, 0xFF	; 255
    1cda:	1d 8f       	std	Y+29, r17	; 0x1d
    1cdc:	81 e0       	ldi	r24, 0x01	; 1
    1cde:	01 c0       	rjmp	.+2      	; 0x1ce2 <xQueueReceiveFromISR+0x50>
    1ce0:	80 e0       	ldi	r24, 0x00	; 0
    1ce2:	df 91       	pop	r29
    1ce4:	cf 91       	pop	r28
    1ce6:	1f 91       	pop	r17
    1ce8:	0f 91       	pop	r16
    1cea:	ff 90       	pop	r15
    1cec:	ef 90       	pop	r14
    1cee:	08 95       	ret

00001cf0 <xQueuePeekFromISR>:
    1cf0:	0f 93       	push	r16
    1cf2:	1f 93       	push	r17
    1cf4:	cf 93       	push	r28
    1cf6:	df 93       	push	r29
    1cf8:	fc 01       	movw	r30, r24
    1cfa:	22 8d       	ldd	r18, Z+26	; 0x1a
    1cfc:	22 23       	and	r18, r18
    1cfe:	49 f0       	breq	.+18     	; 0x1d12 <xQueuePeekFromISR+0x22>
    1d00:	ec 01       	movw	r28, r24
    1d02:	06 81       	ldd	r16, Z+6	; 0x06
    1d04:	17 81       	ldd	r17, Z+7	; 0x07
    1d06:	0e 94 a2 0a 	call	0x1544	; 0x1544 <prvCopyDataFromQueue>
    1d0a:	1f 83       	std	Y+7, r17	; 0x07
    1d0c:	0e 83       	std	Y+6, r16	; 0x06
    1d0e:	81 e0       	ldi	r24, 0x01	; 1
    1d10:	01 c0       	rjmp	.+2      	; 0x1d14 <xQueuePeekFromISR+0x24>
    1d12:	80 e0       	ldi	r24, 0x00	; 0
    1d14:	df 91       	pop	r29
    1d16:	cf 91       	pop	r28
    1d18:	1f 91       	pop	r17
    1d1a:	0f 91       	pop	r16
    1d1c:	08 95       	ret

00001d1e <uxQueueMessagesWaiting>:
    1d1e:	0f b6       	in	r0, 0x3f	; 63
    1d20:	f8 94       	cli
    1d22:	0f 92       	push	r0
    1d24:	fc 01       	movw	r30, r24
    1d26:	82 8d       	ldd	r24, Z+26	; 0x1a
    1d28:	0f 90       	pop	r0
    1d2a:	0f be       	out	0x3f, r0	; 63
    1d2c:	08 95       	ret

00001d2e <uxQueueSpacesAvailable>:
    1d2e:	0f b6       	in	r0, 0x3f	; 63
    1d30:	f8 94       	cli
    1d32:	0f 92       	push	r0
    1d34:	fc 01       	movw	r30, r24
    1d36:	22 8d       	ldd	r18, Z+26	; 0x1a
    1d38:	0f 90       	pop	r0
    1d3a:	0f be       	out	0x3f, r0	; 63
    1d3c:	83 8d       	ldd	r24, Z+27	; 0x1b
    1d3e:	82 1b       	sub	r24, r18
    1d40:	08 95       	ret

00001d42 <uxQueueMessagesWaitingFromISR>:
    1d42:	fc 01       	movw	r30, r24
    1d44:	82 8d       	ldd	r24, Z+26	; 0x1a
    1d46:	08 95       	ret

00001d48 <vQueueDelete>:
    1d48:	0c 94 18 12 	jmp	0x2430	; 0x2430 <vPortFree>

00001d4c <xQueueIsQueueEmptyFromISR>:
    1d4c:	fc 01       	movw	r30, r24
    1d4e:	92 8d       	ldd	r25, Z+26	; 0x1a
    1d50:	81 e0       	ldi	r24, 0x01	; 1
    1d52:	91 11       	cpse	r25, r1
    1d54:	80 e0       	ldi	r24, 0x00	; 0
    1d56:	08 95       	ret

00001d58 <xQueueIsQueueFullFromISR>:
    1d58:	fc 01       	movw	r30, r24
    1d5a:	92 8d       	ldd	r25, Z+26	; 0x1a
    1d5c:	81 e0       	ldi	r24, 0x01	; 1
    1d5e:	23 8d       	ldd	r18, Z+27	; 0x1b
    1d60:	29 13       	cpse	r18, r25
    1d62:	80 e0       	ldi	r24, 0x00	; 0
    1d64:	08 95       	ret

00001d66 <xQueueCRSend>:
    1d66:	cf 93       	push	r28
    1d68:	df 93       	push	r29
    1d6a:	ec 01       	movw	r28, r24
    1d6c:	f8 94       	cli
    1d6e:	0f b6       	in	r0, 0x3f	; 63
    1d70:	f8 94       	cli
    1d72:	0f 92       	push	r0
    1d74:	8a 8d       	ldd	r24, Y+26	; 0x1a
    1d76:	9b 8d       	ldd	r25, Y+27	; 0x1b
    1d78:	0f 90       	pop	r0
    1d7a:	0f be       	out	0x3f, r0	; 63
    1d7c:	89 13       	cpse	r24, r25
    1d7e:	0f c0       	rjmp	.+30     	; 0x1d9e <xQueueCRSend+0x38>
    1d80:	41 15       	cp	r20, r1
    1d82:	51 05       	cpc	r21, r1
    1d84:	49 f0       	breq	.+18     	; 0x1d98 <xQueueCRSend+0x32>
    1d86:	be 01       	movw	r22, r28
    1d88:	68 5f       	subi	r22, 0xF8	; 248
    1d8a:	7f 4f       	sbci	r23, 0xFF	; 255
    1d8c:	ca 01       	movw	r24, r20
    1d8e:	0e 94 92 10 	call	0x2124	; 0x2124 <vCoRoutineAddToDelayedList>
    1d92:	78 94       	sei
    1d94:	8c ef       	ldi	r24, 0xFC	; 252
    1d96:	1b c0       	rjmp	.+54     	; 0x1dce <xQueueCRSend+0x68>
    1d98:	78 94       	sei
    1d9a:	80 e0       	ldi	r24, 0x00	; 0
    1d9c:	18 c0       	rjmp	.+48     	; 0x1dce <xQueueCRSend+0x68>
    1d9e:	78 94       	sei
    1da0:	f8 94       	cli
    1da2:	8a 8d       	ldd	r24, Y+26	; 0x1a
    1da4:	89 17       	cp	r24, r25
    1da6:	88 f4       	brcc	.+34     	; 0x1dca <xQueueCRSend+0x64>
    1da8:	40 e0       	ldi	r20, 0x00	; 0
    1daa:	ce 01       	movw	r24, r28
    1dac:	0e 94 4f 0a 	call	0x149e	; 0x149e <prvCopyDataToQueue>
    1db0:	89 89       	ldd	r24, Y+17	; 0x11
    1db2:	81 11       	cpse	r24, r1
    1db4:	02 c0       	rjmp	.+4      	; 0x1dba <xQueueCRSend+0x54>
    1db6:	81 e0       	ldi	r24, 0x01	; 1
    1db8:	09 c0       	rjmp	.+18     	; 0x1dcc <xQueueCRSend+0x66>
    1dba:	ce 01       	movw	r24, r28
    1dbc:	41 96       	adiw	r24, 0x11	; 17
    1dbe:	0e 94 c1 11 	call	0x2382	; 0x2382 <xCoRoutineRemoveFromEventList>
    1dc2:	88 23       	and	r24, r24
    1dc4:	c1 f3       	breq	.-16     	; 0x1db6 <xQueueCRSend+0x50>
    1dc6:	8b ef       	ldi	r24, 0xFB	; 251
    1dc8:	01 c0       	rjmp	.+2      	; 0x1dcc <xQueueCRSend+0x66>
    1dca:	80 e0       	ldi	r24, 0x00	; 0
    1dcc:	78 94       	sei
    1dce:	df 91       	pop	r29
    1dd0:	cf 91       	pop	r28
    1dd2:	08 95       	ret

00001dd4 <xQueueCRReceive>:
    1dd4:	cf 93       	push	r28
    1dd6:	df 93       	push	r29
    1dd8:	ec 01       	movw	r28, r24
    1dda:	fb 01       	movw	r30, r22
    1ddc:	f8 94       	cli
    1dde:	8a 8d       	ldd	r24, Y+26	; 0x1a
    1de0:	81 11       	cpse	r24, r1
    1de2:	0f c0       	rjmp	.+30     	; 0x1e02 <xQueueCRReceive+0x2e>
    1de4:	41 15       	cp	r20, r1
    1de6:	51 05       	cpc	r21, r1
    1de8:	49 f0       	breq	.+18     	; 0x1dfc <xQueueCRReceive+0x28>
    1dea:	be 01       	movw	r22, r28
    1dec:	6f 5e       	subi	r22, 0xEF	; 239
    1dee:	7f 4f       	sbci	r23, 0xFF	; 255
    1df0:	ca 01       	movw	r24, r20
    1df2:	0e 94 92 10 	call	0x2124	; 0x2124 <vCoRoutineAddToDelayedList>
    1df6:	78 94       	sei
    1df8:	8c ef       	ldi	r24, 0xFC	; 252
    1dfa:	30 c0       	rjmp	.+96     	; 0x1e5c <xQueueCRReceive+0x88>
    1dfc:	78 94       	sei
    1dfe:	80 e0       	ldi	r24, 0x00	; 0
    1e00:	2d c0       	rjmp	.+90     	; 0x1e5c <xQueueCRReceive+0x88>
    1e02:	78 94       	sei
    1e04:	f8 94       	cli
    1e06:	8a 8d       	ldd	r24, Y+26	; 0x1a
    1e08:	88 23       	and	r24, r24
    1e0a:	31 f1       	breq	.+76     	; 0x1e58 <xQueueCRReceive+0x84>
    1e0c:	4c 8d       	ldd	r20, Y+28	; 0x1c
    1e0e:	50 e0       	ldi	r21, 0x00	; 0
    1e10:	2e 81       	ldd	r18, Y+6	; 0x06
    1e12:	3f 81       	ldd	r19, Y+7	; 0x07
    1e14:	24 0f       	add	r18, r20
    1e16:	35 1f       	adc	r19, r21
    1e18:	3f 83       	std	Y+7, r19	; 0x07
    1e1a:	2e 83       	std	Y+6, r18	; 0x06
    1e1c:	8c 81       	ldd	r24, Y+4	; 0x04
    1e1e:	9d 81       	ldd	r25, Y+5	; 0x05
    1e20:	28 17       	cp	r18, r24
    1e22:	39 07       	cpc	r19, r25
    1e24:	20 f0       	brcs	.+8      	; 0x1e2e <xQueueCRReceive+0x5a>
    1e26:	88 81       	ld	r24, Y
    1e28:	99 81       	ldd	r25, Y+1	; 0x01
    1e2a:	9f 83       	std	Y+7, r25	; 0x07
    1e2c:	8e 83       	std	Y+6, r24	; 0x06
    1e2e:	9a 8d       	ldd	r25, Y+26	; 0x1a
    1e30:	91 50       	subi	r25, 0x01	; 1
    1e32:	9a 8f       	std	Y+26, r25	; 0x1a
    1e34:	6e 81       	ldd	r22, Y+6	; 0x06
    1e36:	7f 81       	ldd	r23, Y+7	; 0x07
    1e38:	cf 01       	movw	r24, r30
    1e3a:	0e 94 16 14 	call	0x282c	; 0x282c <memcpy>
    1e3e:	88 85       	ldd	r24, Y+8	; 0x08
    1e40:	81 11       	cpse	r24, r1
    1e42:	02 c0       	rjmp	.+4      	; 0x1e48 <xQueueCRReceive+0x74>
    1e44:	81 e0       	ldi	r24, 0x01	; 1
    1e46:	09 c0       	rjmp	.+18     	; 0x1e5a <xQueueCRReceive+0x86>
    1e48:	ce 01       	movw	r24, r28
    1e4a:	08 96       	adiw	r24, 0x08	; 8
    1e4c:	0e 94 c1 11 	call	0x2382	; 0x2382 <xCoRoutineRemoveFromEventList>
    1e50:	88 23       	and	r24, r24
    1e52:	c1 f3       	breq	.-16     	; 0x1e44 <xQueueCRReceive+0x70>
    1e54:	8b ef       	ldi	r24, 0xFB	; 251
    1e56:	01 c0       	rjmp	.+2      	; 0x1e5a <xQueueCRReceive+0x86>
    1e58:	80 e0       	ldi	r24, 0x00	; 0
    1e5a:	78 94       	sei
    1e5c:	df 91       	pop	r29
    1e5e:	cf 91       	pop	r28
    1e60:	08 95       	ret

00001e62 <xQueueCRSendFromISR>:
    1e62:	0f 93       	push	r16
    1e64:	1f 93       	push	r17
    1e66:	cf 93       	push	r28
    1e68:	8c 01       	movw	r16, r24
    1e6a:	c4 2f       	mov	r28, r20
    1e6c:	fc 01       	movw	r30, r24
    1e6e:	92 8d       	ldd	r25, Z+26	; 0x1a
    1e70:	83 8d       	ldd	r24, Z+27	; 0x1b
    1e72:	98 17       	cp	r25, r24
    1e74:	10 f0       	brcs	.+4      	; 0x1e7a <xQueueCRSendFromISR+0x18>
    1e76:	4c 2f       	mov	r20, r28
    1e78:	12 c0       	rjmp	.+36     	; 0x1e9e <xQueueCRSendFromISR+0x3c>
    1e7a:	40 e0       	ldi	r20, 0x00	; 0
    1e7c:	c8 01       	movw	r24, r16
    1e7e:	0e 94 4f 0a 	call	0x149e	; 0x149e <prvCopyDataToQueue>
    1e82:	c1 11       	cpse	r28, r1
    1e84:	f8 cf       	rjmp	.-16     	; 0x1e76 <xQueueCRSendFromISR+0x14>
    1e86:	f8 01       	movw	r30, r16
    1e88:	81 89       	ldd	r24, Z+17	; 0x11
    1e8a:	88 23       	and	r24, r24
    1e8c:	39 f0       	breq	.+14     	; 0x1e9c <xQueueCRSendFromISR+0x3a>
    1e8e:	c8 01       	movw	r24, r16
    1e90:	41 96       	adiw	r24, 0x11	; 17
    1e92:	0e 94 c1 11 	call	0x2382	; 0x2382 <xCoRoutineRemoveFromEventList>
    1e96:	41 e0       	ldi	r20, 0x01	; 1
    1e98:	81 11       	cpse	r24, r1
    1e9a:	01 c0       	rjmp	.+2      	; 0x1e9e <xQueueCRSendFromISR+0x3c>
    1e9c:	40 e0       	ldi	r20, 0x00	; 0
    1e9e:	84 2f       	mov	r24, r20
    1ea0:	cf 91       	pop	r28
    1ea2:	1f 91       	pop	r17
    1ea4:	0f 91       	pop	r16
    1ea6:	08 95       	ret

00001ea8 <xQueueCRReceiveFromISR>:
    1ea8:	0f 93       	push	r16
    1eaa:	1f 93       	push	r17
    1eac:	cf 93       	push	r28
    1eae:	df 93       	push	r29
    1eb0:	fc 01       	movw	r30, r24
    1eb2:	82 8d       	ldd	r24, Z+26	; 0x1a
    1eb4:	88 23       	and	r24, r24
    1eb6:	79 f1       	breq	.+94     	; 0x1f16 <xQueueCRReceiveFromISR+0x6e>
    1eb8:	24 8d       	ldd	r18, Z+28	; 0x1c
    1eba:	30 e0       	ldi	r19, 0x00	; 0
    1ebc:	a6 81       	ldd	r26, Z+6	; 0x06
    1ebe:	b7 81       	ldd	r27, Z+7	; 0x07
    1ec0:	a2 0f       	add	r26, r18
    1ec2:	b3 1f       	adc	r27, r19
    1ec4:	b7 83       	std	Z+7, r27	; 0x07
    1ec6:	a6 83       	std	Z+6, r26	; 0x06
    1ec8:	84 81       	ldd	r24, Z+4	; 0x04
    1eca:	95 81       	ldd	r25, Z+5	; 0x05
    1ecc:	a8 17       	cp	r26, r24
    1ece:	b9 07       	cpc	r27, r25
    1ed0:	20 f0       	brcs	.+8      	; 0x1eda <xQueueCRReceiveFromISR+0x32>
    1ed2:	80 81       	ld	r24, Z
    1ed4:	91 81       	ldd	r25, Z+1	; 0x01
    1ed6:	97 83       	std	Z+7, r25	; 0x07
    1ed8:	86 83       	std	Z+6, r24	; 0x06
    1eda:	8a 01       	movw	r16, r20
    1edc:	cb 01       	movw	r24, r22
    1ede:	ef 01       	movw	r28, r30
    1ee0:	42 8d       	ldd	r20, Z+26	; 0x1a
    1ee2:	41 50       	subi	r20, 0x01	; 1
    1ee4:	42 8f       	std	Z+26, r20	; 0x1a
    1ee6:	66 81       	ldd	r22, Z+6	; 0x06
    1ee8:	77 81       	ldd	r23, Z+7	; 0x07
    1eea:	a9 01       	movw	r20, r18
    1eec:	0e 94 16 14 	call	0x282c	; 0x282c <memcpy>
    1ef0:	f8 01       	movw	r30, r16
    1ef2:	80 81       	ld	r24, Z
    1ef4:	88 23       	and	r24, r24
    1ef6:	11 f0       	breq	.+4      	; 0x1efc <xQueueCRReceiveFromISR+0x54>
    1ef8:	81 e0       	ldi	r24, 0x01	; 1
    1efa:	0e c0       	rjmp	.+28     	; 0x1f18 <xQueueCRReceiveFromISR+0x70>
    1efc:	88 85       	ldd	r24, Y+8	; 0x08
    1efe:	88 23       	and	r24, r24
    1f00:	d9 f3       	breq	.-10     	; 0x1ef8 <xQueueCRReceiveFromISR+0x50>
    1f02:	ce 01       	movw	r24, r28
    1f04:	08 96       	adiw	r24, 0x08	; 8
    1f06:	0e 94 c1 11 	call	0x2382	; 0x2382 <xCoRoutineRemoveFromEventList>
    1f0a:	88 23       	and	r24, r24
    1f0c:	a9 f3       	breq	.-22     	; 0x1ef8 <xQueueCRReceiveFromISR+0x50>
    1f0e:	81 e0       	ldi	r24, 0x01	; 1
    1f10:	f8 01       	movw	r30, r16
    1f12:	80 83       	st	Z, r24
    1f14:	01 c0       	rjmp	.+2      	; 0x1f18 <xQueueCRReceiveFromISR+0x70>
    1f16:	80 e0       	ldi	r24, 0x00	; 0
    1f18:	df 91       	pop	r29
    1f1a:	cf 91       	pop	r28
    1f1c:	1f 91       	pop	r17
    1f1e:	0f 91       	pop	r16
    1f20:	08 95       	ret

00001f22 <vListInitialise>:
    1f22:	fc 01       	movw	r30, r24
    1f24:	03 96       	adiw	r24, 0x03	; 3
    1f26:	92 83       	std	Z+2, r25	; 0x02
    1f28:	81 83       	std	Z+1, r24	; 0x01
    1f2a:	2f ef       	ldi	r18, 0xFF	; 255
    1f2c:	3f ef       	ldi	r19, 0xFF	; 255
    1f2e:	34 83       	std	Z+4, r19	; 0x04
    1f30:	23 83       	std	Z+3, r18	; 0x03
    1f32:	96 83       	std	Z+6, r25	; 0x06
    1f34:	85 83       	std	Z+5, r24	; 0x05
    1f36:	90 87       	std	Z+8, r25	; 0x08
    1f38:	87 83       	std	Z+7, r24	; 0x07
    1f3a:	10 82       	st	Z, r1
    1f3c:	08 95       	ret

00001f3e <vListInitialiseItem>:
    1f3e:	fc 01       	movw	r30, r24
    1f40:	11 86       	std	Z+9, r1	; 0x09
    1f42:	10 86       	std	Z+8, r1	; 0x08
    1f44:	08 95       	ret

00001f46 <vListInsertEnd>:
    1f46:	cf 93       	push	r28
    1f48:	df 93       	push	r29
    1f4a:	9c 01       	movw	r18, r24
    1f4c:	fb 01       	movw	r30, r22
    1f4e:	dc 01       	movw	r26, r24
    1f50:	11 96       	adiw	r26, 0x01	; 1
    1f52:	cd 91       	ld	r28, X+
    1f54:	dc 91       	ld	r29, X
    1f56:	12 97       	sbiw	r26, 0x02	; 2
    1f58:	d3 83       	std	Z+3, r29	; 0x03
    1f5a:	c2 83       	std	Z+2, r28	; 0x02
    1f5c:	8c 81       	ldd	r24, Y+4	; 0x04
    1f5e:	9d 81       	ldd	r25, Y+5	; 0x05
    1f60:	95 83       	std	Z+5, r25	; 0x05
    1f62:	84 83       	std	Z+4, r24	; 0x04
    1f64:	8c 81       	ldd	r24, Y+4	; 0x04
    1f66:	9d 81       	ldd	r25, Y+5	; 0x05
    1f68:	dc 01       	movw	r26, r24
    1f6a:	13 96       	adiw	r26, 0x03	; 3
    1f6c:	7c 93       	st	X, r23
    1f6e:	6e 93       	st	-X, r22
    1f70:	12 97       	sbiw	r26, 0x02	; 2
    1f72:	7d 83       	std	Y+5, r23	; 0x05
    1f74:	6c 83       	std	Y+4, r22	; 0x04
    1f76:	31 87       	std	Z+9, r19	; 0x09
    1f78:	20 87       	std	Z+8, r18	; 0x08
    1f7a:	f9 01       	movw	r30, r18
    1f7c:	80 81       	ld	r24, Z
    1f7e:	8f 5f       	subi	r24, 0xFF	; 255
    1f80:	80 83       	st	Z, r24
    1f82:	df 91       	pop	r29
    1f84:	cf 91       	pop	r28
    1f86:	08 95       	ret

00001f88 <vListInsert>:
    1f88:	0f 93       	push	r16
    1f8a:	1f 93       	push	r17
    1f8c:	cf 93       	push	r28
    1f8e:	df 93       	push	r29
    1f90:	8c 01       	movw	r16, r24
    1f92:	fb 01       	movw	r30, r22
    1f94:	80 81       	ld	r24, Z
    1f96:	91 81       	ldd	r25, Z+1	; 0x01
    1f98:	8f 3f       	cpi	r24, 0xFF	; 255
    1f9a:	2f ef       	ldi	r18, 0xFF	; 255
    1f9c:	92 07       	cpc	r25, r18
    1f9e:	21 f4       	brne	.+8      	; 0x1fa8 <vListInsert+0x20>
    1fa0:	e8 01       	movw	r28, r16
    1fa2:	af 81       	ldd	r26, Y+7	; 0x07
    1fa4:	b8 85       	ldd	r27, Y+8	; 0x08
    1fa6:	0e c0       	rjmp	.+28     	; 0x1fc4 <vListInsert+0x3c>
    1fa8:	d8 01       	movw	r26, r16
    1faa:	13 96       	adiw	r26, 0x03	; 3
    1fac:	12 96       	adiw	r26, 0x02	; 2
    1fae:	2d 91       	ld	r18, X+
    1fb0:	3c 91       	ld	r19, X
    1fb2:	13 97       	sbiw	r26, 0x03	; 3
    1fb4:	e9 01       	movw	r28, r18
    1fb6:	48 81       	ld	r20, Y
    1fb8:	59 81       	ldd	r21, Y+1	; 0x01
    1fba:	84 17       	cp	r24, r20
    1fbc:	95 07       	cpc	r25, r21
    1fbe:	10 f0       	brcs	.+4      	; 0x1fc4 <vListInsert+0x3c>
    1fc0:	d9 01       	movw	r26, r18
    1fc2:	f4 cf       	rjmp	.-24     	; 0x1fac <vListInsert+0x24>
    1fc4:	12 96       	adiw	r26, 0x02	; 2
    1fc6:	8d 91       	ld	r24, X+
    1fc8:	9c 91       	ld	r25, X
    1fca:	13 97       	sbiw	r26, 0x03	; 3
    1fcc:	93 83       	std	Z+3, r25	; 0x03
    1fce:	82 83       	std	Z+2, r24	; 0x02
    1fd0:	ec 01       	movw	r28, r24
    1fd2:	fd 83       	std	Y+5, r31	; 0x05
    1fd4:	ec 83       	std	Y+4, r30	; 0x04
    1fd6:	b5 83       	std	Z+5, r27	; 0x05
    1fd8:	a4 83       	std	Z+4, r26	; 0x04
    1fda:	13 96       	adiw	r26, 0x03	; 3
    1fdc:	fc 93       	st	X, r31
    1fde:	ee 93       	st	-X, r30
    1fe0:	12 97       	sbiw	r26, 0x02	; 2
    1fe2:	11 87       	std	Z+9, r17	; 0x09
    1fe4:	00 87       	std	Z+8, r16	; 0x08
    1fe6:	f8 01       	movw	r30, r16
    1fe8:	80 81       	ld	r24, Z
    1fea:	8f 5f       	subi	r24, 0xFF	; 255
    1fec:	80 83       	st	Z, r24
    1fee:	df 91       	pop	r29
    1ff0:	cf 91       	pop	r28
    1ff2:	1f 91       	pop	r17
    1ff4:	0f 91       	pop	r16
    1ff6:	08 95       	ret

00001ff8 <uxListRemove>:
    1ff8:	cf 93       	push	r28
    1ffa:	df 93       	push	r29
    1ffc:	fc 01       	movw	r30, r24
    1ffe:	a0 85       	ldd	r26, Z+8	; 0x08
    2000:	b1 85       	ldd	r27, Z+9	; 0x09
    2002:	82 81       	ldd	r24, Z+2	; 0x02
    2004:	93 81       	ldd	r25, Z+3	; 0x03
    2006:	24 81       	ldd	r18, Z+4	; 0x04
    2008:	35 81       	ldd	r19, Z+5	; 0x05
    200a:	ec 01       	movw	r28, r24
    200c:	3d 83       	std	Y+5, r19	; 0x05
    200e:	2c 83       	std	Y+4, r18	; 0x04
    2010:	c4 81       	ldd	r28, Z+4	; 0x04
    2012:	d5 81       	ldd	r29, Z+5	; 0x05
    2014:	9b 83       	std	Y+3, r25	; 0x03
    2016:	8a 83       	std	Y+2, r24	; 0x02
    2018:	11 96       	adiw	r26, 0x01	; 1
    201a:	8d 91       	ld	r24, X+
    201c:	9c 91       	ld	r25, X
    201e:	12 97       	sbiw	r26, 0x02	; 2
    2020:	e8 17       	cp	r30, r24
    2022:	f9 07       	cpc	r31, r25
    2024:	21 f4       	brne	.+8      	; 0x202e <uxListRemove+0x36>
    2026:	12 96       	adiw	r26, 0x02	; 2
    2028:	dc 93       	st	X, r29
    202a:	ce 93       	st	-X, r28
    202c:	11 97       	sbiw	r26, 0x01	; 1
    202e:	11 86       	std	Z+9, r1	; 0x09
    2030:	10 86       	std	Z+8, r1	; 0x08
    2032:	8c 91       	ld	r24, X
    2034:	81 50       	subi	r24, 0x01	; 1
    2036:	8c 93       	st	X, r24
    2038:	8c 91       	ld	r24, X
    203a:	df 91       	pop	r29
    203c:	cf 91       	pop	r28
    203e:	08 95       	ret

00002040 <xCoRoutineCreate>:
    2040:	cf 92       	push	r12
    2042:	df 92       	push	r13
    2044:	ef 92       	push	r14
    2046:	ff 92       	push	r15
    2048:	1f 93       	push	r17
    204a:	cf 93       	push	r28
    204c:	df 93       	push	r29
    204e:	6c 01       	movw	r12, r24
    2050:	16 2f       	mov	r17, r22
    2052:	f4 2e       	mov	r15, r20
    2054:	8a e1       	ldi	r24, 0x1A	; 26
    2056:	90 e0       	ldi	r25, 0x00	; 0
    2058:	0e 94 e6 11 	call	0x23cc	; 0x23cc <pvPortMalloc>
    205c:	ec 01       	movw	r28, r24
    205e:	89 2b       	or	r24, r25
    2060:	09 f4       	brne	.+2      	; 0x2064 <xCoRoutineCreate+0x24>
    2062:	57 c0       	rjmp	.+174    	; 0x2112 <xCoRoutineCreate+0xd2>
    2064:	80 91 9e 01 	lds	r24, 0x019E	; 0x80019e <pxCurrentCoRoutine>
    2068:	90 91 9f 01 	lds	r25, 0x019F	; 0x80019f <pxCurrentCoRoutine+0x1>
    206c:	89 2b       	or	r24, r25
    206e:	21 f5       	brne	.+72     	; 0x20b8 <xCoRoutineCreate+0x78>
    2070:	d0 93 9f 01 	sts	0x019F, r29	; 0x80019f <pxCurrentCoRoutine+0x1>
    2074:	c0 93 9e 01 	sts	0x019E, r28	; 0x80019e <pxCurrentCoRoutine>
    2078:	86 ec       	ldi	r24, 0xC6	; 198
    207a:	91 e0       	ldi	r25, 0x01	; 1
    207c:	0e 94 91 0f 	call	0x1f22	; 0x1f22 <vListInitialise>
    2080:	8f ec       	ldi	r24, 0xCF	; 207
    2082:	91 e0       	ldi	r25, 0x01	; 1
    2084:	0e 94 91 0f 	call	0x1f22	; 0x1f22 <vListInitialise>
    2088:	8d eb       	ldi	r24, 0xBD	; 189
    208a:	91 e0       	ldi	r25, 0x01	; 1
    208c:	0e 94 91 0f 	call	0x1f22	; 0x1f22 <vListInitialise>
    2090:	84 eb       	ldi	r24, 0xB4	; 180
    2092:	91 e0       	ldi	r25, 0x01	; 1
    2094:	0e 94 91 0f 	call	0x1f22	; 0x1f22 <vListInitialise>
    2098:	87 ea       	ldi	r24, 0xA7	; 167
    209a:	91 e0       	ldi	r25, 0x01	; 1
    209c:	0e 94 91 0f 	call	0x1f22	; 0x1f22 <vListInitialise>
    20a0:	8d eb       	ldi	r24, 0xBD	; 189
    20a2:	91 e0       	ldi	r25, 0x01	; 1
    20a4:	90 93 b3 01 	sts	0x01B3, r25	; 0x8001b3 <pxDelayedCoRoutineList+0x1>
    20a8:	80 93 b2 01 	sts	0x01B2, r24	; 0x8001b2 <pxDelayedCoRoutineList>
    20ac:	84 eb       	ldi	r24, 0xB4	; 180
    20ae:	91 e0       	ldi	r25, 0x01	; 1
    20b0:	90 93 b1 01 	sts	0x01B1, r25	; 0x8001b1 <pxOverflowDelayedCoRoutineList+0x1>
    20b4:	80 93 b0 01 	sts	0x01B0, r24	; 0x8001b0 <pxOverflowDelayedCoRoutineList>
    20b8:	11 11       	cpse	r17, r1
    20ba:	11 e0       	ldi	r17, 0x01	; 1
    20bc:	19 8e       	std	Y+25, r1	; 0x19
    20be:	18 8e       	std	Y+24, r1	; 0x18
    20c0:	1e 8b       	std	Y+22, r17	; 0x16
    20c2:	ff 8a       	std	Y+23, r15	; 0x17
    20c4:	fe 01       	movw	r30, r28
    20c6:	c1 92       	st	Z+, r12
    20c8:	d1 92       	st	Z+, r13
    20ca:	7f 01       	movw	r14, r30
    20cc:	cf 01       	movw	r24, r30
    20ce:	0e 94 9f 0f 	call	0x1f3e	; 0x1f3e <vListInitialiseItem>
    20d2:	ce 01       	movw	r24, r28
    20d4:	0c 96       	adiw	r24, 0x0c	; 12
    20d6:	0e 94 9f 0f 	call	0x1f3e	; 0x1f3e <vListInitialiseItem>
    20da:	d9 87       	std	Y+9, r29	; 0x09
    20dc:	c8 87       	std	Y+8, r28	; 0x08
    20de:	db 8b       	std	Y+19, r29	; 0x13
    20e0:	ca 8b       	std	Y+18, r28	; 0x12
    20e2:	82 e0       	ldi	r24, 0x02	; 2
    20e4:	90 e0       	ldi	r25, 0x00	; 0
    20e6:	81 1b       	sub	r24, r17
    20e8:	91 09       	sbc	r25, r1
    20ea:	9d 87       	std	Y+13, r25	; 0x0d
    20ec:	8c 87       	std	Y+12, r24	; 0x0c
    20ee:	8e 89       	ldd	r24, Y+22	; 0x16
    20f0:	90 91 a6 01 	lds	r25, 0x01A6	; 0x8001a6 <uxTopCoRoutineReadyPriority>
    20f4:	98 17       	cp	r25, r24
    20f6:	10 f4       	brcc	.+4      	; 0x20fc <xCoRoutineCreate+0xbc>
    20f8:	80 93 a6 01 	sts	0x01A6, r24	; 0x8001a6 <uxTopCoRoutineReadyPriority>
    20fc:	f9 e0       	ldi	r31, 0x09	; 9
    20fe:	8f 9f       	mul	r24, r31
    2100:	c0 01       	movw	r24, r0
    2102:	11 24       	eor	r1, r1
    2104:	b7 01       	movw	r22, r14
    2106:	8a 53       	subi	r24, 0x3A	; 58
    2108:	9e 4f       	sbci	r25, 0xFE	; 254
    210a:	0e 94 a3 0f 	call	0x1f46	; 0x1f46 <vListInsertEnd>
    210e:	81 e0       	ldi	r24, 0x01	; 1
    2110:	01 c0       	rjmp	.+2      	; 0x2114 <xCoRoutineCreate+0xd4>
    2112:	8f ef       	ldi	r24, 0xFF	; 255
    2114:	df 91       	pop	r29
    2116:	cf 91       	pop	r28
    2118:	1f 91       	pop	r17
    211a:	ff 90       	pop	r15
    211c:	ef 90       	pop	r14
    211e:	df 90       	pop	r13
    2120:	cf 90       	pop	r12
    2122:	08 95       	ret

00002124 <vCoRoutineAddToDelayedList>:
    2124:	0f 93       	push	r16
    2126:	1f 93       	push	r17
    2128:	cf 93       	push	r28
    212a:	df 93       	push	r29
    212c:	8b 01       	movw	r16, r22
    212e:	c0 91 a4 01 	lds	r28, 0x01A4	; 0x8001a4 <xCoRoutineTickCount>
    2132:	d0 91 a5 01 	lds	r29, 0x01A5	; 0x8001a5 <xCoRoutineTickCount+0x1>
    2136:	c8 0f       	add	r28, r24
    2138:	d9 1f       	adc	r29, r25
    213a:	80 91 9e 01 	lds	r24, 0x019E	; 0x80019e <pxCurrentCoRoutine>
    213e:	90 91 9f 01 	lds	r25, 0x019F	; 0x80019f <pxCurrentCoRoutine+0x1>
    2142:	02 96       	adiw	r24, 0x02	; 2
    2144:	0e 94 fc 0f 	call	0x1ff8	; 0x1ff8 <uxListRemove>
    2148:	e0 91 9e 01 	lds	r30, 0x019E	; 0x80019e <pxCurrentCoRoutine>
    214c:	f0 91 9f 01 	lds	r31, 0x019F	; 0x80019f <pxCurrentCoRoutine+0x1>
    2150:	d3 83       	std	Z+3, r29	; 0x03
    2152:	c2 83       	std	Z+2, r28	; 0x02
    2154:	80 91 a4 01 	lds	r24, 0x01A4	; 0x8001a4 <xCoRoutineTickCount>
    2158:	90 91 a5 01 	lds	r25, 0x01A5	; 0x8001a5 <xCoRoutineTickCount+0x1>
    215c:	bf 01       	movw	r22, r30
    215e:	6e 5f       	subi	r22, 0xFE	; 254
    2160:	7f 4f       	sbci	r23, 0xFF	; 255
    2162:	c8 17       	cp	r28, r24
    2164:	d9 07       	cpc	r29, r25
    2166:	28 f4       	brcc	.+10     	; 0x2172 <vCoRoutineAddToDelayedList+0x4e>
    2168:	80 91 b0 01 	lds	r24, 0x01B0	; 0x8001b0 <pxOverflowDelayedCoRoutineList>
    216c:	90 91 b1 01 	lds	r25, 0x01B1	; 0x8001b1 <pxOverflowDelayedCoRoutineList+0x1>
    2170:	04 c0       	rjmp	.+8      	; 0x217a <vCoRoutineAddToDelayedList+0x56>
    2172:	80 91 b2 01 	lds	r24, 0x01B2	; 0x8001b2 <pxDelayedCoRoutineList>
    2176:	90 91 b3 01 	lds	r25, 0x01B3	; 0x8001b3 <pxDelayedCoRoutineList+0x1>
    217a:	0e 94 c4 0f 	call	0x1f88	; 0x1f88 <vListInsert>
    217e:	01 15       	cp	r16, r1
    2180:	11 05       	cpc	r17, r1
    2182:	69 f0       	breq	.+26     	; 0x219e <vCoRoutineAddToDelayedList+0x7a>
    2184:	60 91 9e 01 	lds	r22, 0x019E	; 0x80019e <pxCurrentCoRoutine>
    2188:	70 91 9f 01 	lds	r23, 0x019F	; 0x80019f <pxCurrentCoRoutine+0x1>
    218c:	64 5f       	subi	r22, 0xF4	; 244
    218e:	7f 4f       	sbci	r23, 0xFF	; 255
    2190:	c8 01       	movw	r24, r16
    2192:	df 91       	pop	r29
    2194:	cf 91       	pop	r28
    2196:	1f 91       	pop	r17
    2198:	0f 91       	pop	r16
    219a:	0c 94 c4 0f 	jmp	0x1f88	; 0x1f88 <vListInsert>
    219e:	df 91       	pop	r29
    21a0:	cf 91       	pop	r28
    21a2:	1f 91       	pop	r17
    21a4:	0f 91       	pop	r16
    21a6:	08 95       	ret

000021a8 <vCoRoutineSchedule>:
    21a8:	ff 92       	push	r15
    21aa:	0f 93       	push	r16
    21ac:	1f 93       	push	r17
    21ae:	cf 93       	push	r28
    21b0:	df 93       	push	r29
    21b2:	99 e0       	ldi	r25, 0x09	; 9
    21b4:	f9 2e       	mov	r15, r25
    21b6:	80 91 a7 01 	lds	r24, 0x01A7	; 0x8001a7 <xPendingReadyCoRoutineList>
    21ba:	88 23       	and	r24, r24
    21bc:	11 f1       	breq	.+68     	; 0x2202 <vCoRoutineSchedule+0x5a>
    21be:	f8 94       	cli
    21c0:	e0 91 ac 01 	lds	r30, 0x01AC	; 0x8001ac <xPendingReadyCoRoutineList+0x5>
    21c4:	f0 91 ad 01 	lds	r31, 0x01AD	; 0x8001ad <xPendingReadyCoRoutineList+0x6>
    21c8:	c6 81       	ldd	r28, Z+6	; 0x06
    21ca:	d7 81       	ldd	r29, Z+7	; 0x07
    21cc:	ce 01       	movw	r24, r28
    21ce:	0c 96       	adiw	r24, 0x0c	; 12
    21d0:	0e 94 fc 0f 	call	0x1ff8	; 0x1ff8 <uxListRemove>
    21d4:	78 94       	sei
    21d6:	8e 01       	movw	r16, r28
    21d8:	0e 5f       	subi	r16, 0xFE	; 254
    21da:	1f 4f       	sbci	r17, 0xFF	; 255
    21dc:	c8 01       	movw	r24, r16
    21de:	0e 94 fc 0f 	call	0x1ff8	; 0x1ff8 <uxListRemove>
    21e2:	8e 89       	ldd	r24, Y+22	; 0x16
    21e4:	90 91 a6 01 	lds	r25, 0x01A6	; 0x8001a6 <uxTopCoRoutineReadyPriority>
    21e8:	98 17       	cp	r25, r24
    21ea:	10 f4       	brcc	.+4      	; 0x21f0 <vCoRoutineSchedule+0x48>
    21ec:	80 93 a6 01 	sts	0x01A6, r24	; 0x8001a6 <uxTopCoRoutineReadyPriority>
    21f0:	f8 9e       	mul	r15, r24
    21f2:	c0 01       	movw	r24, r0
    21f4:	11 24       	eor	r1, r1
    21f6:	b8 01       	movw	r22, r16
    21f8:	8a 53       	subi	r24, 0x3A	; 58
    21fa:	9e 4f       	sbci	r25, 0xFE	; 254
    21fc:	0e 94 a3 0f 	call	0x1f46	; 0x1f46 <vListInsertEnd>
    2200:	da cf       	rjmp	.-76     	; 0x21b6 <vCoRoutineSchedule+0xe>
    2202:	0e 94 08 04 	call	0x810	; 0x810 <xTaskGetTickCount>
    2206:	20 91 a2 01 	lds	r18, 0x01A2	; 0x8001a2 <xLastTickCount>
    220a:	30 91 a3 01 	lds	r19, 0x01A3	; 0x8001a3 <xLastTickCount+0x1>
    220e:	82 1b       	sub	r24, r18
    2210:	93 0b       	sbc	r25, r19
    2212:	90 93 a1 01 	sts	0x01A1, r25	; 0x8001a1 <xPassedTicks+0x1>
    2216:	80 93 a0 01 	sts	0x01A0, r24	; 0x8001a0 <xPassedTicks>
    221a:	89 e0       	ldi	r24, 0x09	; 9
    221c:	f8 2e       	mov	r15, r24
    221e:	20 91 a0 01 	lds	r18, 0x01A0	; 0x8001a0 <xPassedTicks>
    2222:	30 91 a1 01 	lds	r19, 0x01A1	; 0x8001a1 <xPassedTicks+0x1>
    2226:	80 91 a4 01 	lds	r24, 0x01A4	; 0x8001a4 <xCoRoutineTickCount>
    222a:	90 91 a5 01 	lds	r25, 0x01A5	; 0x8001a5 <xCoRoutineTickCount+0x1>
    222e:	21 15       	cp	r18, r1
    2230:	31 05       	cpc	r19, r1
    2232:	09 f4       	brne	.+2      	; 0x2236 <vCoRoutineSchedule+0x8e>
    2234:	54 c0       	rjmp	.+168    	; 0x22de <vCoRoutineSchedule+0x136>
    2236:	01 96       	adiw	r24, 0x01	; 1
    2238:	90 93 a5 01 	sts	0x01A5, r25	; 0x8001a5 <xCoRoutineTickCount+0x1>
    223c:	80 93 a4 01 	sts	0x01A4, r24	; 0x8001a4 <xCoRoutineTickCount>
    2240:	21 50       	subi	r18, 0x01	; 1
    2242:	31 09       	sbc	r19, r1
    2244:	30 93 a1 01 	sts	0x01A1, r19	; 0x8001a1 <xPassedTicks+0x1>
    2248:	20 93 a0 01 	sts	0x01A0, r18	; 0x8001a0 <xPassedTicks>
    224c:	89 2b       	or	r24, r25
    224e:	09 f0       	breq	.+2      	; 0x2252 <vCoRoutineSchedule+0xaa>
    2250:	3e c0       	rjmp	.+124    	; 0x22ce <vCoRoutineSchedule+0x126>
    2252:	80 91 b2 01 	lds	r24, 0x01B2	; 0x8001b2 <pxDelayedCoRoutineList>
    2256:	90 91 b3 01 	lds	r25, 0x01B3	; 0x8001b3 <pxDelayedCoRoutineList+0x1>
    225a:	20 91 b0 01 	lds	r18, 0x01B0	; 0x8001b0 <pxOverflowDelayedCoRoutineList>
    225e:	30 91 b1 01 	lds	r19, 0x01B1	; 0x8001b1 <pxOverflowDelayedCoRoutineList+0x1>
    2262:	30 93 b3 01 	sts	0x01B3, r19	; 0x8001b3 <pxDelayedCoRoutineList+0x1>
    2266:	20 93 b2 01 	sts	0x01B2, r18	; 0x8001b2 <pxDelayedCoRoutineList>
    226a:	90 93 b1 01 	sts	0x01B1, r25	; 0x8001b1 <pxOverflowDelayedCoRoutineList+0x1>
    226e:	80 93 b0 01 	sts	0x01B0, r24	; 0x8001b0 <pxOverflowDelayedCoRoutineList>
    2272:	2d c0       	rjmp	.+90     	; 0x22ce <vCoRoutineSchedule+0x126>
    2274:	05 80       	ldd	r0, Z+5	; 0x05
    2276:	f6 81       	ldd	r31, Z+6	; 0x06
    2278:	e0 2d       	mov	r30, r0
    227a:	c6 81       	ldd	r28, Z+6	; 0x06
    227c:	d7 81       	ldd	r29, Z+7	; 0x07
    227e:	2a 81       	ldd	r18, Y+2	; 0x02
    2280:	3b 81       	ldd	r19, Y+3	; 0x03
    2282:	80 91 a4 01 	lds	r24, 0x01A4	; 0x8001a4 <xCoRoutineTickCount>
    2286:	90 91 a5 01 	lds	r25, 0x01A5	; 0x8001a5 <xCoRoutineTickCount+0x1>
    228a:	82 17       	cp	r24, r18
    228c:	93 07       	cpc	r25, r19
    228e:	38 f2       	brcs	.-114    	; 0x221e <vCoRoutineSchedule+0x76>
    2290:	f8 94       	cli
    2292:	8e 01       	movw	r16, r28
    2294:	0e 5f       	subi	r16, 0xFE	; 254
    2296:	1f 4f       	sbci	r17, 0xFF	; 255
    2298:	c8 01       	movw	r24, r16
    229a:	0e 94 fc 0f 	call	0x1ff8	; 0x1ff8 <uxListRemove>
    229e:	8c 89       	ldd	r24, Y+20	; 0x14
    22a0:	9d 89       	ldd	r25, Y+21	; 0x15
    22a2:	89 2b       	or	r24, r25
    22a4:	21 f0       	breq	.+8      	; 0x22ae <vCoRoutineSchedule+0x106>
    22a6:	ce 01       	movw	r24, r28
    22a8:	0c 96       	adiw	r24, 0x0c	; 12
    22aa:	0e 94 fc 0f 	call	0x1ff8	; 0x1ff8 <uxListRemove>
    22ae:	78 94       	sei
    22b0:	8e 89       	ldd	r24, Y+22	; 0x16
    22b2:	90 91 a6 01 	lds	r25, 0x01A6	; 0x8001a6 <uxTopCoRoutineReadyPriority>
    22b6:	98 17       	cp	r25, r24
    22b8:	10 f4       	brcc	.+4      	; 0x22be <vCoRoutineSchedule+0x116>
    22ba:	80 93 a6 01 	sts	0x01A6, r24	; 0x8001a6 <uxTopCoRoutineReadyPriority>
    22be:	f8 9e       	mul	r15, r24
    22c0:	c0 01       	movw	r24, r0
    22c2:	11 24       	eor	r1, r1
    22c4:	b8 01       	movw	r22, r16
    22c6:	8a 53       	subi	r24, 0x3A	; 58
    22c8:	9e 4f       	sbci	r25, 0xFE	; 254
    22ca:	0e 94 a3 0f 	call	0x1f46	; 0x1f46 <vListInsertEnd>
    22ce:	e0 91 b2 01 	lds	r30, 0x01B2	; 0x8001b2 <pxDelayedCoRoutineList>
    22d2:	f0 91 b3 01 	lds	r31, 0x01B3	; 0x8001b3 <pxDelayedCoRoutineList+0x1>
    22d6:	80 81       	ld	r24, Z
    22d8:	81 11       	cpse	r24, r1
    22da:	cc cf       	rjmp	.-104    	; 0x2274 <vCoRoutineSchedule+0xcc>
    22dc:	a0 cf       	rjmp	.-192    	; 0x221e <vCoRoutineSchedule+0x76>
    22de:	90 93 a3 01 	sts	0x01A3, r25	; 0x8001a3 <xLastTickCount+0x1>
    22e2:	80 93 a2 01 	sts	0x01A2, r24	; 0x8001a2 <xLastTickCount>
    22e6:	80 91 a6 01 	lds	r24, 0x01A6	; 0x8001a6 <uxTopCoRoutineReadyPriority>
    22ea:	69 e0       	ldi	r22, 0x09	; 9
    22ec:	48 2f       	mov	r20, r24
    22ee:	50 e0       	ldi	r21, 0x00	; 0
    22f0:	64 9f       	mul	r22, r20
    22f2:	90 01       	movw	r18, r0
    22f4:	65 9f       	mul	r22, r21
    22f6:	30 0d       	add	r19, r0
    22f8:	11 24       	eor	r1, r1
    22fa:	f9 01       	movw	r30, r18
    22fc:	ea 53       	subi	r30, 0x3A	; 58
    22fe:	fe 4f       	sbci	r31, 0xFE	; 254
    2300:	90 81       	ld	r25, Z
    2302:	91 11       	cpse	r25, r1
    2304:	0c c0       	rjmp	.+24     	; 0x231e <vCoRoutineSchedule+0x176>
    2306:	81 11       	cpse	r24, r1
    2308:	08 c0       	rjmp	.+16     	; 0x231a <vCoRoutineSchedule+0x172>
    230a:	10 92 a6 01 	sts	0x01A6, r1	; 0x8001a6 <uxTopCoRoutineReadyPriority>
    230e:	df 91       	pop	r29
    2310:	cf 91       	pop	r28
    2312:	1f 91       	pop	r17
    2314:	0f 91       	pop	r16
    2316:	ff 90       	pop	r15
    2318:	08 95       	ret
    231a:	81 50       	subi	r24, 0x01	; 1
    231c:	e7 cf       	rjmp	.-50     	; 0x22ec <vCoRoutineSchedule+0x144>
    231e:	80 93 a6 01 	sts	0x01A6, r24	; 0x8001a6 <uxTopCoRoutineReadyPriority>
    2322:	a1 81       	ldd	r26, Z+1	; 0x01
    2324:	b2 81       	ldd	r27, Z+2	; 0x02
    2326:	12 96       	adiw	r26, 0x02	; 2
    2328:	0d 90       	ld	r0, X+
    232a:	bc 91       	ld	r27, X
    232c:	a0 2d       	mov	r26, r0
    232e:	b2 83       	std	Z+2, r27	; 0x02
    2330:	a1 83       	std	Z+1, r26	; 0x01
    2332:	27 53       	subi	r18, 0x37	; 55
    2334:	3e 4f       	sbci	r19, 0xFE	; 254
    2336:	a2 17       	cp	r26, r18
    2338:	b3 07       	cpc	r27, r19
    233a:	31 f4       	brne	.+12     	; 0x2348 <vCoRoutineSchedule+0x1a0>
    233c:	12 96       	adiw	r26, 0x02	; 2
    233e:	8d 91       	ld	r24, X+
    2340:	9c 91       	ld	r25, X
    2342:	13 97       	sbiw	r26, 0x03	; 3
    2344:	92 83       	std	Z+2, r25	; 0x02
    2346:	81 83       	std	Z+1, r24	; 0x01
    2348:	89 e0       	ldi	r24, 0x09	; 9
    234a:	84 9f       	mul	r24, r20
    234c:	f0 01       	movw	r30, r0
    234e:	85 9f       	mul	r24, r21
    2350:	f0 0d       	add	r31, r0
    2352:	11 24       	eor	r1, r1
    2354:	ea 53       	subi	r30, 0x3A	; 58
    2356:	fe 4f       	sbci	r31, 0xFE	; 254
    2358:	01 80       	ldd	r0, Z+1	; 0x01
    235a:	f2 81       	ldd	r31, Z+2	; 0x02
    235c:	e0 2d       	mov	r30, r0
    235e:	86 81       	ldd	r24, Z+6	; 0x06
    2360:	97 81       	ldd	r25, Z+7	; 0x07
    2362:	90 93 9f 01 	sts	0x019F, r25	; 0x80019f <pxCurrentCoRoutine+0x1>
    2366:	80 93 9e 01 	sts	0x019E, r24	; 0x80019e <pxCurrentCoRoutine>
    236a:	dc 01       	movw	r26, r24
    236c:	ed 91       	ld	r30, X+
    236e:	fc 91       	ld	r31, X
    2370:	11 97       	sbiw	r26, 0x01	; 1
    2372:	57 96       	adiw	r26, 0x17	; 23
    2374:	6c 91       	ld	r22, X
    2376:	df 91       	pop	r29
    2378:	cf 91       	pop	r28
    237a:	1f 91       	pop	r17
    237c:	0f 91       	pop	r16
    237e:	ff 90       	pop	r15
    2380:	09 94       	ijmp

00002382 <xCoRoutineRemoveFromEventList>:
    2382:	0f 93       	push	r16
    2384:	1f 93       	push	r17
    2386:	cf 93       	push	r28
    2388:	df 93       	push	r29
    238a:	dc 01       	movw	r26, r24
    238c:	15 96       	adiw	r26, 0x05	; 5
    238e:	ed 91       	ld	r30, X+
    2390:	fc 91       	ld	r31, X
    2392:	16 97       	sbiw	r26, 0x06	; 6
    2394:	c6 81       	ldd	r28, Z+6	; 0x06
    2396:	d7 81       	ldd	r29, Z+7	; 0x07
    2398:	8e 01       	movw	r16, r28
    239a:	04 5f       	subi	r16, 0xF4	; 244
    239c:	1f 4f       	sbci	r17, 0xFF	; 255
    239e:	c8 01       	movw	r24, r16
    23a0:	0e 94 fc 0f 	call	0x1ff8	; 0x1ff8 <uxListRemove>
    23a4:	b8 01       	movw	r22, r16
    23a6:	87 ea       	ldi	r24, 0xA7	; 167
    23a8:	91 e0       	ldi	r25, 0x01	; 1
    23aa:	0e 94 a3 0f 	call	0x1f46	; 0x1f46 <vListInsertEnd>
    23ae:	e0 91 9e 01 	lds	r30, 0x019E	; 0x80019e <pxCurrentCoRoutine>
    23b2:	f0 91 9f 01 	lds	r31, 0x019F	; 0x80019f <pxCurrentCoRoutine+0x1>
    23b6:	81 e0       	ldi	r24, 0x01	; 1
    23b8:	2e 89       	ldd	r18, Y+22	; 0x16
    23ba:	96 89       	ldd	r25, Z+22	; 0x16
    23bc:	29 17       	cp	r18, r25
    23be:	08 f4       	brcc	.+2      	; 0x23c2 <xCoRoutineRemoveFromEventList+0x40>
    23c0:	80 e0       	ldi	r24, 0x00	; 0
    23c2:	df 91       	pop	r29
    23c4:	cf 91       	pop	r28
    23c6:	1f 91       	pop	r17
    23c8:	0f 91       	pop	r16
    23ca:	08 95       	ret

000023cc <pvPortMalloc>:
    23cc:	cf 93       	push	r28
    23ce:	df 93       	push	r29
    23d0:	ec 01       	movw	r28, r24
    23d2:	0e 94 02 04 	call	0x804	; 0x804 <vTaskSuspendAll>
    23d6:	80 91 d8 01 	lds	r24, 0x01D8	; 0x8001d8 <pucAlignedHeap.2082>
    23da:	90 91 d9 01 	lds	r25, 0x01D9	; 0x8001d9 <pucAlignedHeap.2082+0x1>
    23de:	89 2b       	or	r24, r25
    23e0:	31 f4       	brne	.+12     	; 0x23ee <pvPortMalloc+0x22>
    23e2:	8d ed       	ldi	r24, 0xDD	; 221
    23e4:	91 e0       	ldi	r25, 0x01	; 1
    23e6:	90 93 d9 01 	sts	0x01D9, r25	; 0x8001d9 <pucAlignedHeap.2082+0x1>
    23ea:	80 93 d8 01 	sts	0x01D8, r24	; 0x8001d8 <pucAlignedHeap.2082>
    23ee:	20 91 da 01 	lds	r18, 0x01DA	; 0x8001da <xNextFreeByte>
    23f2:	30 91 db 01 	lds	r19, 0x01DB	; 0x8001db <xNextFreeByte+0x1>
    23f6:	c9 01       	movw	r24, r18
    23f8:	8c 0f       	add	r24, r28
    23fa:	9d 1f       	adc	r25, r29
    23fc:	8b 3d       	cpi	r24, 0xDB	; 219
    23fe:	45 e0       	ldi	r20, 0x05	; 5
    2400:	94 07       	cpc	r25, r20
    2402:	70 f4       	brcc	.+28     	; 0x2420 <pvPortMalloc+0x54>
    2404:	28 17       	cp	r18, r24
    2406:	39 07       	cpc	r19, r25
    2408:	58 f4       	brcc	.+22     	; 0x2420 <pvPortMalloc+0x54>
    240a:	c0 91 d8 01 	lds	r28, 0x01D8	; 0x8001d8 <pucAlignedHeap.2082>
    240e:	d0 91 d9 01 	lds	r29, 0x01D9	; 0x8001d9 <pucAlignedHeap.2082+0x1>
    2412:	c2 0f       	add	r28, r18
    2414:	d3 1f       	adc	r29, r19
    2416:	90 93 db 01 	sts	0x01DB, r25	; 0x8001db <xNextFreeByte+0x1>
    241a:	80 93 da 01 	sts	0x01DA, r24	; 0x8001da <xNextFreeByte>
    241e:	02 c0       	rjmp	.+4      	; 0x2424 <pvPortMalloc+0x58>
    2420:	c0 e0       	ldi	r28, 0x00	; 0
    2422:	d0 e0       	ldi	r29, 0x00	; 0
    2424:	0e 94 ce 04 	call	0x99c	; 0x99c <xTaskResumeAll>
    2428:	ce 01       	movw	r24, r28
    242a:	df 91       	pop	r29
    242c:	cf 91       	pop	r28
    242e:	08 95       	ret

00002430 <vPortFree>:
    2430:	08 95       	ret

00002432 <vPortInitialiseBlocks>:
    2432:	10 92 db 01 	sts	0x01DB, r1	; 0x8001db <xNextFreeByte+0x1>
    2436:	10 92 da 01 	sts	0x01DA, r1	; 0x8001da <xNextFreeByte>
    243a:	08 95       	ret

0000243c <xPortGetFreeHeapSize>:
    243c:	20 91 da 01 	lds	r18, 0x01DA	; 0x8001da <xNextFreeByte>
    2440:	30 91 db 01 	lds	r19, 0x01DB	; 0x8001db <xNextFreeByte+0x1>
    2444:	8b ed       	ldi	r24, 0xDB	; 219
    2446:	95 e0       	ldi	r25, 0x05	; 5
    2448:	82 1b       	sub	r24, r18
    244a:	93 0b       	sbc	r25, r19
    244c:	08 95       	ret

0000244e <pxPortInitialiseStack>:
    244e:	31 e1       	ldi	r19, 0x11	; 17
    2450:	fc 01       	movw	r30, r24
    2452:	30 83       	st	Z, r19
    2454:	31 97       	sbiw	r30, 0x01	; 1
    2456:	22 e2       	ldi	r18, 0x22	; 34
    2458:	20 83       	st	Z, r18
    245a:	31 97       	sbiw	r30, 0x01	; 1
    245c:	a3 e3       	ldi	r26, 0x33	; 51
    245e:	a0 83       	st	Z, r26
    2460:	31 97       	sbiw	r30, 0x01	; 1
    2462:	60 83       	st	Z, r22
    2464:	31 97       	sbiw	r30, 0x01	; 1
    2466:	70 83       	st	Z, r23
    2468:	31 97       	sbiw	r30, 0x01	; 1
    246a:	10 82       	st	Z, r1
    246c:	31 97       	sbiw	r30, 0x01	; 1
    246e:	60 e8       	ldi	r22, 0x80	; 128
    2470:	60 83       	st	Z, r22
    2472:	31 97       	sbiw	r30, 0x01	; 1
    2474:	10 82       	st	Z, r1
    2476:	31 97       	sbiw	r30, 0x01	; 1
    2478:	62 e0       	ldi	r22, 0x02	; 2
    247a:	60 83       	st	Z, r22
    247c:	31 97       	sbiw	r30, 0x01	; 1
    247e:	63 e0       	ldi	r22, 0x03	; 3
    2480:	60 83       	st	Z, r22
    2482:	31 97       	sbiw	r30, 0x01	; 1
    2484:	64 e0       	ldi	r22, 0x04	; 4
    2486:	60 83       	st	Z, r22
    2488:	31 97       	sbiw	r30, 0x01	; 1
    248a:	65 e0       	ldi	r22, 0x05	; 5
    248c:	60 83       	st	Z, r22
    248e:	31 97       	sbiw	r30, 0x01	; 1
    2490:	66 e0       	ldi	r22, 0x06	; 6
    2492:	60 83       	st	Z, r22
    2494:	31 97       	sbiw	r30, 0x01	; 1
    2496:	67 e0       	ldi	r22, 0x07	; 7
    2498:	60 83       	st	Z, r22
    249a:	31 97       	sbiw	r30, 0x01	; 1
    249c:	68 e0       	ldi	r22, 0x08	; 8
    249e:	60 83       	st	Z, r22
    24a0:	31 97       	sbiw	r30, 0x01	; 1
    24a2:	69 e0       	ldi	r22, 0x09	; 9
    24a4:	60 83       	st	Z, r22
    24a6:	31 97       	sbiw	r30, 0x01	; 1
    24a8:	60 e1       	ldi	r22, 0x10	; 16
    24aa:	60 83       	st	Z, r22
    24ac:	31 97       	sbiw	r30, 0x01	; 1
    24ae:	30 83       	st	Z, r19
    24b0:	31 97       	sbiw	r30, 0x01	; 1
    24b2:	32 e1       	ldi	r19, 0x12	; 18
    24b4:	30 83       	st	Z, r19
    24b6:	31 97       	sbiw	r30, 0x01	; 1
    24b8:	33 e1       	ldi	r19, 0x13	; 19
    24ba:	30 83       	st	Z, r19
    24bc:	31 97       	sbiw	r30, 0x01	; 1
    24be:	34 e1       	ldi	r19, 0x14	; 20
    24c0:	30 83       	st	Z, r19
    24c2:	31 97       	sbiw	r30, 0x01	; 1
    24c4:	35 e1       	ldi	r19, 0x15	; 21
    24c6:	30 83       	st	Z, r19
    24c8:	31 97       	sbiw	r30, 0x01	; 1
    24ca:	36 e1       	ldi	r19, 0x16	; 22
    24cc:	30 83       	st	Z, r19
    24ce:	31 97       	sbiw	r30, 0x01	; 1
    24d0:	37 e1       	ldi	r19, 0x17	; 23
    24d2:	30 83       	st	Z, r19
    24d4:	31 97       	sbiw	r30, 0x01	; 1
    24d6:	38 e1       	ldi	r19, 0x18	; 24
    24d8:	30 83       	st	Z, r19
    24da:	31 97       	sbiw	r30, 0x01	; 1
    24dc:	39 e1       	ldi	r19, 0x19	; 25
    24de:	30 83       	st	Z, r19
    24e0:	31 97       	sbiw	r30, 0x01	; 1
    24e2:	30 e2       	ldi	r19, 0x20	; 32
    24e4:	30 83       	st	Z, r19
    24e6:	31 97       	sbiw	r30, 0x01	; 1
    24e8:	31 e2       	ldi	r19, 0x21	; 33
    24ea:	30 83       	st	Z, r19
    24ec:	31 97       	sbiw	r30, 0x01	; 1
    24ee:	20 83       	st	Z, r18
    24f0:	31 97       	sbiw	r30, 0x01	; 1
    24f2:	23 e2       	ldi	r18, 0x23	; 35
    24f4:	20 83       	st	Z, r18
    24f6:	31 97       	sbiw	r30, 0x01	; 1
    24f8:	40 83       	st	Z, r20
    24fa:	31 97       	sbiw	r30, 0x01	; 1
    24fc:	50 83       	st	Z, r21
    24fe:	31 97       	sbiw	r30, 0x01	; 1
    2500:	26 e2       	ldi	r18, 0x26	; 38
    2502:	20 83       	st	Z, r18
    2504:	31 97       	sbiw	r30, 0x01	; 1
    2506:	27 e2       	ldi	r18, 0x27	; 39
    2508:	20 83       	st	Z, r18
    250a:	31 97       	sbiw	r30, 0x01	; 1
    250c:	28 e2       	ldi	r18, 0x28	; 40
    250e:	20 83       	st	Z, r18
    2510:	31 97       	sbiw	r30, 0x01	; 1
    2512:	29 e2       	ldi	r18, 0x29	; 41
    2514:	20 83       	st	Z, r18
    2516:	31 97       	sbiw	r30, 0x01	; 1
    2518:	20 e3       	ldi	r18, 0x30	; 48
    251a:	20 83       	st	Z, r18
    251c:	31 97       	sbiw	r30, 0x01	; 1
    251e:	21 e3       	ldi	r18, 0x31	; 49
    2520:	20 83       	st	Z, r18
    2522:	86 97       	sbiw	r24, 0x26	; 38
    2524:	08 95       	ret

00002526 <xPortStartScheduler>:
    2526:	89 ef       	ldi	r24, 0xF9	; 249
    2528:	90 e0       	ldi	r25, 0x00	; 0
    252a:	90 93 89 00 	sts	0x0089, r25	; 0x800089 <__DATA_REGION_ORIGIN__+0x29>
    252e:	80 93 88 00 	sts	0x0088, r24	; 0x800088 <__DATA_REGION_ORIGIN__+0x28>
    2532:	e0 e8       	ldi	r30, 0x80	; 128
    2534:	f0 e0       	ldi	r31, 0x00	; 0
    2536:	80 81       	ld	r24, Z
    2538:	8c 7f       	andi	r24, 0xFC	; 252
    253a:	80 83       	st	Z, r24
    253c:	8b e0       	ldi	r24, 0x0B	; 11
    253e:	80 93 81 00 	sts	0x0081, r24	; 0x800081 <__DATA_REGION_ORIGIN__+0x21>
    2542:	ef e6       	ldi	r30, 0x6F	; 111
    2544:	f0 e0       	ldi	r31, 0x00	; 0
    2546:	80 81       	ld	r24, Z
    2548:	82 60       	ori	r24, 0x02	; 2
    254a:	80 83       	st	Z, r24
    254c:	a0 91 38 01 	lds	r26, 0x0138	; 0x800138 <__data_end>
    2550:	b0 91 39 01 	lds	r27, 0x0139	; 0x800139 <__data_end+0x1>
    2554:	cd 91       	ld	r28, X+
    2556:	cd bf       	out	0x3d, r28	; 61
    2558:	dd 91       	ld	r29, X+
    255a:	de bf       	out	0x3e, r29	; 62
    255c:	ff 91       	pop	r31
    255e:	ef 91       	pop	r30
    2560:	df 91       	pop	r29
    2562:	cf 91       	pop	r28
    2564:	bf 91       	pop	r27
    2566:	af 91       	pop	r26
    2568:	9f 91       	pop	r25
    256a:	8f 91       	pop	r24
    256c:	7f 91       	pop	r23
    256e:	6f 91       	pop	r22
    2570:	5f 91       	pop	r21
    2572:	4f 91       	pop	r20
    2574:	3f 91       	pop	r19
    2576:	2f 91       	pop	r18
    2578:	1f 91       	pop	r17
    257a:	0f 91       	pop	r16
    257c:	ff 90       	pop	r15
    257e:	ef 90       	pop	r14
    2580:	df 90       	pop	r13
    2582:	cf 90       	pop	r12
    2584:	bf 90       	pop	r11
    2586:	af 90       	pop	r10
    2588:	9f 90       	pop	r9
    258a:	8f 90       	pop	r8
    258c:	7f 90       	pop	r7
    258e:	6f 90       	pop	r6
    2590:	5f 90       	pop	r5
    2592:	4f 90       	pop	r4
    2594:	3f 90       	pop	r3
    2596:	2f 90       	pop	r2
    2598:	1f 90       	pop	r1
    259a:	0f 90       	pop	r0
    259c:	0f be       	out	0x3f, r0	; 63
    259e:	0f 90       	pop	r0
    25a0:	08 95       	ret
    25a2:	81 e0       	ldi	r24, 0x01	; 1
    25a4:	08 95       	ret

000025a6 <vPortEndScheduler>:
    25a6:	08 95       	ret

000025a8 <vPortYield>:
    25a8:	0f 92       	push	r0
    25aa:	0f b6       	in	r0, 0x3f	; 63
    25ac:	f8 94       	cli
    25ae:	0f 92       	push	r0
    25b0:	1f 92       	push	r1
    25b2:	11 24       	eor	r1, r1
    25b4:	2f 92       	push	r2
    25b6:	3f 92       	push	r3
    25b8:	4f 92       	push	r4
    25ba:	5f 92       	push	r5
    25bc:	6f 92       	push	r6
    25be:	7f 92       	push	r7
    25c0:	8f 92       	push	r8
    25c2:	9f 92       	push	r9
    25c4:	af 92       	push	r10
    25c6:	bf 92       	push	r11
    25c8:	cf 92       	push	r12
    25ca:	df 92       	push	r13
    25cc:	ef 92       	push	r14
    25ce:	ff 92       	push	r15
    25d0:	0f 93       	push	r16
    25d2:	1f 93       	push	r17
    25d4:	2f 93       	push	r18
    25d6:	3f 93       	push	r19
    25d8:	4f 93       	push	r20
    25da:	5f 93       	push	r21
    25dc:	6f 93       	push	r22
    25de:	7f 93       	push	r23
    25e0:	8f 93       	push	r24
    25e2:	9f 93       	push	r25
    25e4:	af 93       	push	r26
    25e6:	bf 93       	push	r27
    25e8:	cf 93       	push	r28
    25ea:	df 93       	push	r29
    25ec:	ef 93       	push	r30
    25ee:	ff 93       	push	r31
    25f0:	a0 91 38 01 	lds	r26, 0x0138	; 0x800138 <__data_end>
    25f4:	b0 91 39 01 	lds	r27, 0x0139	; 0x800139 <__data_end+0x1>
    25f8:	0d b6       	in	r0, 0x3d	; 61
    25fa:	0d 92       	st	X+, r0
    25fc:	0e b6       	in	r0, 0x3e	; 62
    25fe:	0d 92       	st	X+, r0
    2600:	0e 94 8a 05 	call	0xb14	; 0xb14 <vTaskSwitchContext>
    2604:	a0 91 38 01 	lds	r26, 0x0138	; 0x800138 <__data_end>
    2608:	b0 91 39 01 	lds	r27, 0x0139	; 0x800139 <__data_end+0x1>
    260c:	cd 91       	ld	r28, X+
    260e:	cd bf       	out	0x3d, r28	; 61
    2610:	dd 91       	ld	r29, X+
    2612:	de bf       	out	0x3e, r29	; 62
    2614:	ff 91       	pop	r31
    2616:	ef 91       	pop	r30
    2618:	df 91       	pop	r29
    261a:	cf 91       	pop	r28
    261c:	bf 91       	pop	r27
    261e:	af 91       	pop	r26
    2620:	9f 91       	pop	r25
    2622:	8f 91       	pop	r24
    2624:	7f 91       	pop	r23
    2626:	6f 91       	pop	r22
    2628:	5f 91       	pop	r21
    262a:	4f 91       	pop	r20
    262c:	3f 91       	pop	r19
    262e:	2f 91       	pop	r18
    2630:	1f 91       	pop	r17
    2632:	0f 91       	pop	r16
    2634:	ff 90       	pop	r15
    2636:	ef 90       	pop	r14
    2638:	df 90       	pop	r13
    263a:	cf 90       	pop	r12
    263c:	bf 90       	pop	r11
    263e:	af 90       	pop	r10
    2640:	9f 90       	pop	r9
    2642:	8f 90       	pop	r8
    2644:	7f 90       	pop	r7
    2646:	6f 90       	pop	r6
    2648:	5f 90       	pop	r5
    264a:	4f 90       	pop	r4
    264c:	3f 90       	pop	r3
    264e:	2f 90       	pop	r2
    2650:	1f 90       	pop	r1
    2652:	0f 90       	pop	r0
    2654:	0f be       	out	0x3f, r0	; 63
    2656:	0f 90       	pop	r0
    2658:	08 95       	ret

0000265a <vPortYieldFromTick>:
    265a:	0f 92       	push	r0
    265c:	0f b6       	in	r0, 0x3f	; 63
    265e:	f8 94       	cli
    2660:	0f 92       	push	r0
    2662:	1f 92       	push	r1
    2664:	11 24       	eor	r1, r1
    2666:	2f 92       	push	r2
    2668:	3f 92       	push	r3
    266a:	4f 92       	push	r4
    266c:	5f 92       	push	r5
    266e:	6f 92       	push	r6
    2670:	7f 92       	push	r7
    2672:	8f 92       	push	r8
    2674:	9f 92       	push	r9
    2676:	af 92       	push	r10
    2678:	bf 92       	push	r11
    267a:	cf 92       	push	r12
    267c:	df 92       	push	r13
    267e:	ef 92       	push	r14
    2680:	ff 92       	push	r15
    2682:	0f 93       	push	r16
    2684:	1f 93       	push	r17
    2686:	2f 93       	push	r18
    2688:	3f 93       	push	r19
    268a:	4f 93       	push	r20
    268c:	5f 93       	push	r21
    268e:	6f 93       	push	r22
    2690:	7f 93       	push	r23
    2692:	8f 93       	push	r24
    2694:	9f 93       	push	r25
    2696:	af 93       	push	r26
    2698:	bf 93       	push	r27
    269a:	cf 93       	push	r28
    269c:	df 93       	push	r29
    269e:	ef 93       	push	r30
    26a0:	ff 93       	push	r31
    26a2:	a0 91 38 01 	lds	r26, 0x0138	; 0x800138 <__data_end>
    26a6:	b0 91 39 01 	lds	r27, 0x0139	; 0x800139 <__data_end+0x1>
    26aa:	0d b6       	in	r0, 0x3d	; 61
    26ac:	0d 92       	st	X+, r0
    26ae:	0e b6       	in	r0, 0x3e	; 62
    26b0:	0d 92       	st	X+, r0
    26b2:	0e 94 22 04 	call	0x844	; 0x844 <xTaskIncrementTick>
    26b6:	81 11       	cpse	r24, r1
    26b8:	0e 94 8a 05 	call	0xb14	; 0xb14 <vTaskSwitchContext>
    26bc:	a0 91 38 01 	lds	r26, 0x0138	; 0x800138 <__data_end>
    26c0:	b0 91 39 01 	lds	r27, 0x0139	; 0x800139 <__data_end+0x1>
    26c4:	cd 91       	ld	r28, X+
    26c6:	cd bf       	out	0x3d, r28	; 61
    26c8:	dd 91       	ld	r29, X+
    26ca:	de bf       	out	0x3e, r29	; 62
    26cc:	ff 91       	pop	r31
    26ce:	ef 91       	pop	r30
    26d0:	df 91       	pop	r29
    26d2:	cf 91       	pop	r28
    26d4:	bf 91       	pop	r27
    26d6:	af 91       	pop	r26
    26d8:	9f 91       	pop	r25
    26da:	8f 91       	pop	r24
    26dc:	7f 91       	pop	r23
    26de:	6f 91       	pop	r22
    26e0:	5f 91       	pop	r21
    26e2:	4f 91       	pop	r20
    26e4:	3f 91       	pop	r19
    26e6:	2f 91       	pop	r18
    26e8:	1f 91       	pop	r17
    26ea:	0f 91       	pop	r16
    26ec:	ff 90       	pop	r15
    26ee:	ef 90       	pop	r14
    26f0:	df 90       	pop	r13
    26f2:	cf 90       	pop	r12
    26f4:	bf 90       	pop	r11
    26f6:	af 90       	pop	r10
    26f8:	9f 90       	pop	r9
    26fa:	8f 90       	pop	r8
    26fc:	7f 90       	pop	r7
    26fe:	6f 90       	pop	r6
    2700:	5f 90       	pop	r5
    2702:	4f 90       	pop	r4
    2704:	3f 90       	pop	r3
    2706:	2f 90       	pop	r2
    2708:	1f 90       	pop	r1
    270a:	0f 90       	pop	r0
    270c:	0f be       	out	0x3f, r0	; 63
    270e:	0f 90       	pop	r0
    2710:	08 95       	ret

00002712 <__vector_11>:
    2712:	0e 94 2d 13 	call	0x265a	; 0x265a <vPortYieldFromTick>
    2716:	18 95       	reti

00002718 <uart_transmit>:
    2718:	cf 93       	push	r28
    271a:	c8 2f       	mov	r28, r24
    271c:	80 91 c0 00 	lds	r24, 0x00C0	; 0x8000c0 <__DATA_REGION_ORIGIN__+0x60>
    2720:	85 fd       	sbrc	r24, 5
    2722:	03 c0       	rjmp	.+6      	; 0x272a <uart_transmit+0x12>
    2724:	0e 94 d4 12 	call	0x25a8	; 0x25a8 <vPortYield>
    2728:	f9 cf       	rjmp	.-14     	; 0x271c <uart_transmit+0x4>
    272a:	c0 93 c6 00 	sts	0x00C6, r28	; 0x8000c6 <__DATA_REGION_ORIGIN__+0x66>
    272e:	80 e0       	ldi	r24, 0x00	; 0
    2730:	90 e0       	ldi	r25, 0x00	; 0
    2732:	cf 91       	pop	r28
    2734:	08 95       	ret

00002736 <uart_receive>:
    2736:	80 91 c0 00 	lds	r24, 0x00C0	; 0x8000c0 <__DATA_REGION_ORIGIN__+0x60>
    273a:	87 fd       	sbrc	r24, 7
    273c:	03 c0       	rjmp	.+6      	; 0x2744 <uart_receive+0xe>
    273e:	0e 94 d4 12 	call	0x25a8	; 0x25a8 <vPortYield>
    2742:	f9 cf       	rjmp	.-14     	; 0x2736 <uart_receive>
    2744:	80 91 c6 00 	lds	r24, 0x00C6	; 0x8000c6 <__DATA_REGION_ORIGIN__+0x66>
    2748:	90 e0       	ldi	r25, 0x00	; 0
    274a:	08 95       	ret

0000274c <uart_init>:
    274c:	10 92 c5 00 	sts	0x00C5, r1	; 0x8000c5 <__DATA_REGION_ORIGIN__+0x65>
    2750:	87 e6       	ldi	r24, 0x67	; 103
    2752:	80 93 c4 00 	sts	0x00C4, r24	; 0x8000c4 <__DATA_REGION_ORIGIN__+0x64>
    2756:	e0 ec       	ldi	r30, 0xC0	; 192
    2758:	f0 e0       	ldi	r31, 0x00	; 0
    275a:	80 81       	ld	r24, Z
    275c:	8d 7f       	andi	r24, 0xFD	; 253
    275e:	80 83       	st	Z, r24
    2760:	86 e0       	ldi	r24, 0x06	; 6
    2762:	80 93 c2 00 	sts	0x00C2, r24	; 0x8000c2 <__DATA_REGION_ORIGIN__+0x62>
    2766:	88 e1       	ldi	r24, 0x18	; 24
    2768:	80 93 c1 00 	sts	0x00C1, r24	; 0x8000c1 <__DATA_REGION_ORIGIN__+0x61>
    276c:	08 95       	ret

0000276e <main>:
void adc_init();

uint16_t readADC(uint8_t mux);

int main(void)
{
    276e:	ef 92       	push	r14
    2770:	ff 92       	push	r15
    2772:	0f 93       	push	r16
    2774:	cf 93       	push	r28
    2776:	df 93       	push	r29
    2778:	00 d0       	rcall	.+0      	; 0x277a <main+0xc>
    277a:	00 d0       	rcall	.+0      	; 0x277c <main+0xe>
    277c:	00 d0       	rcall	.+0      	; 0x277e <main+0x10>
    277e:	cd b7       	in	r28, 0x3d	; 61
    2780:	de b7       	in	r29, 0x3e	; 62
    adc_init();
    2782:	0e 94 54 00 	call	0xa8	; 0xa8 <adc_init>
    sei();
    2786:	78 94       	sei
    uart_init();
    2788:	0e 94 a6 13 	call	0x274c	; 0x274c <uart_init>
    stdin = stdout = stderr = &uart_file;
    278c:	e0 ec       	ldi	r30, 0xC0	; 192
    278e:	f7 e0       	ldi	r31, 0x07	; 7
    2790:	80 e0       	ldi	r24, 0x00	; 0
    2792:	91 e0       	ldi	r25, 0x01	; 1
    2794:	95 83       	std	Z+5, r25	; 0x05
    2796:	84 83       	std	Z+4, r24	; 0x04
    2798:	93 83       	std	Z+3, r25	; 0x03
    279a:	82 83       	std	Z+2, r24	; 0x02
    279c:	91 83       	std	Z+1, r25	; 0x01
    279e:	80 83       	st	Z, r24

    xTaskHandle adc0_handle;
    xTaskHandle adc1_handle;
    xTaskHandle adc2_handle;
    adc_mutex = xSemaphoreCreateMutex();
    27a0:	81 e0       	ldi	r24, 0x01	; 1
    27a2:	0e 94 f7 0b 	call	0x17ee	; 0x17ee <xQueueCreateMutex>
    27a6:	90 93 bf 07 	sts	0x07BF, r25	; 0x8007bf <adc_mutex+0x1>
    27aa:	80 93 be 07 	sts	0x07BE, r24	; 0x8007be <adc_mutex>
    vserial_mutex = xSemaphoreCreateMutex();
    27ae:	81 e0       	ldi	r24, 0x01	; 1
    27b0:	0e 94 f7 0b 	call	0x17ee	; 0x17ee <xQueueCreateMutex>
    27b4:	90 93 bd 07 	sts	0x07BD, r25	; 0x8007bd <vserial_mutex+0x1>
    27b8:	80 93 bc 07 	sts	0x07BC, r24	; 0x8007bc <vserial_mutex>


    xTaskCreate
    27bc:	ce 01       	movw	r24, r28
    27be:	05 96       	adiw	r24, 0x05	; 5
    27c0:	7c 01       	movw	r14, r24
    27c2:	01 e0       	ldi	r16, 0x01	; 1
    27c4:	20 e0       	ldi	r18, 0x00	; 0
    27c6:	30 e0       	ldi	r19, 0x00	; 0
    27c8:	45 e5       	ldi	r20, 0x55	; 85
    27ca:	50 e0       	ldi	r21, 0x00	; 0
    27cc:	6e e0       	ldi	r22, 0x0E	; 14
    27ce:	71 e0       	ldi	r23, 0x01	; 1
    27d0:	86 e7       	ldi	r24, 0x76	; 118
    27d2:	90 e0       	ldi	r25, 0x00	; 0
    27d4:	0e 94 ec 01 	call	0x3d8	; 0x3d8 <xTaskCreate>
         0,
         mainSERIAL_TASK_PRIORITY,
         &adc0_handle
        );

    xTaskCreate
    27d8:	ce 01       	movw	r24, r28
    27da:	03 96       	adiw	r24, 0x03	; 3
    27dc:	7c 01       	movw	r14, r24
    27de:	21 e0       	ldi	r18, 0x01	; 1
    27e0:	30 e0       	ldi	r19, 0x00	; 0
    27e2:	45 e5       	ldi	r20, 0x55	; 85
    27e4:	50 e0       	ldi	r21, 0x00	; 0
    27e6:	63 e1       	ldi	r22, 0x13	; 19
    27e8:	71 e0       	ldi	r23, 0x01	; 1
    27ea:	86 e7       	ldi	r24, 0x76	; 118
    27ec:	90 e0       	ldi	r25, 0x00	; 0
    27ee:	0e 94 ec 01 	call	0x3d8	; 0x3d8 <xTaskCreate>
         1,
         mainSERIAL_TASK_PRIORITY,
         &adc1_handle
        );

    xTaskCreate
    27f2:	ce 01       	movw	r24, r28
    27f4:	01 96       	adiw	r24, 0x01	; 1
    27f6:	7c 01       	movw	r14, r24
    27f8:	22 e0       	ldi	r18, 0x02	; 2
    27fa:	30 e0       	ldi	r19, 0x00	; 0
    27fc:	45 e5       	ldi	r20, 0x55	; 85
    27fe:	50 e0       	ldi	r21, 0x00	; 0
    2800:	68 e1       	ldi	r22, 0x18	; 24
    2802:	71 e0       	ldi	r23, 0x01	; 1
    2804:	86 e7       	ldi	r24, 0x76	; 118
    2806:	90 e0       	ldi	r25, 0x00	; 0
    2808:	0e 94 ec 01 	call	0x3d8	; 0x3d8 <xTaskCreate>
         mainSERIAL_TASK_PRIORITY,
         &adc2_handle
        );

    // Start scheduler.
    vTaskStartScheduler();
    280c:	0e 94 d3 03 	call	0x7a6	; 0x7a6 <vTaskStartScheduler>

    return 0;
}
    2810:	80 e0       	ldi	r24, 0x00	; 0
    2812:	90 e0       	ldi	r25, 0x00	; 0
    2814:	26 96       	adiw	r28, 0x06	; 6
    2816:	0f b6       	in	r0, 0x3f	; 63
    2818:	f8 94       	cli
    281a:	de bf       	out	0x3e, r29	; 62
    281c:	0f be       	out	0x3f, r0	; 63
    281e:	cd bf       	out	0x3d, r28	; 61
    2820:	df 91       	pop	r29
    2822:	cf 91       	pop	r28
    2824:	0f 91       	pop	r16
    2826:	ff 90       	pop	r15
    2828:	ef 90       	pop	r14
    282a:	08 95       	ret

0000282c <memcpy>:
    282c:	fb 01       	movw	r30, r22
    282e:	dc 01       	movw	r26, r24
    2830:	02 c0       	rjmp	.+4      	; 0x2836 <memcpy+0xa>
    2832:	01 90       	ld	r0, Z+
    2834:	0d 92       	st	X+, r0
    2836:	41 50       	subi	r20, 0x01	; 1
    2838:	50 40       	sbci	r21, 0x00	; 0
    283a:	d8 f7       	brcc	.-10     	; 0x2832 <memcpy+0x6>
    283c:	08 95       	ret

0000283e <printf>:
    283e:	a0 e0       	ldi	r26, 0x00	; 0
    2840:	b0 e0       	ldi	r27, 0x00	; 0
    2842:	e5 e2       	ldi	r30, 0x25	; 37
    2844:	f4 e1       	ldi	r31, 0x14	; 20
    2846:	0c 94 d6 16 	jmp	0x2dac	; 0x2dac <__prologue_saves__+0x20>
    284a:	ae 01       	movw	r20, r28
    284c:	4b 5f       	subi	r20, 0xFB	; 251
    284e:	5f 4f       	sbci	r21, 0xFF	; 255
    2850:	fa 01       	movw	r30, r20
    2852:	61 91       	ld	r22, Z+
    2854:	71 91       	ld	r23, Z+
    2856:	af 01       	movw	r20, r30
    2858:	80 91 c2 07 	lds	r24, 0x07C2	; 0x8007c2 <__iob+0x2>
    285c:	90 91 c3 07 	lds	r25, 0x07C3	; 0x8007c3 <__iob+0x3>
    2860:	0e 94 35 14 	call	0x286a	; 0x286a <vfprintf>
    2864:	e2 e0       	ldi	r30, 0x02	; 2
    2866:	0c 94 f2 16 	jmp	0x2de4	; 0x2de4 <__epilogue_restores__+0x20>

0000286a <vfprintf>:
    286a:	ab e0       	ldi	r26, 0x0B	; 11
    286c:	b0 e0       	ldi	r27, 0x00	; 0
    286e:	eb e3       	ldi	r30, 0x3B	; 59
    2870:	f4 e1       	ldi	r31, 0x14	; 20
    2872:	0c 94 c6 16 	jmp	0x2d8c	; 0x2d8c <__prologue_saves__>
    2876:	6c 01       	movw	r12, r24
    2878:	7b 01       	movw	r14, r22
    287a:	8a 01       	movw	r16, r20
    287c:	fc 01       	movw	r30, r24
    287e:	17 82       	std	Z+7, r1	; 0x07
    2880:	16 82       	std	Z+6, r1	; 0x06
    2882:	83 81       	ldd	r24, Z+3	; 0x03
    2884:	81 ff       	sbrs	r24, 1
    2886:	cc c1       	rjmp	.+920    	; 0x2c20 <vfprintf+0x3b6>
    2888:	ce 01       	movw	r24, r28
    288a:	01 96       	adiw	r24, 0x01	; 1
    288c:	3c 01       	movw	r6, r24
    288e:	f6 01       	movw	r30, r12
    2890:	93 81       	ldd	r25, Z+3	; 0x03
    2892:	f7 01       	movw	r30, r14
    2894:	93 fd       	sbrc	r25, 3
    2896:	85 91       	lpm	r24, Z+
    2898:	93 ff       	sbrs	r25, 3
    289a:	81 91       	ld	r24, Z+
    289c:	7f 01       	movw	r14, r30
    289e:	88 23       	and	r24, r24
    28a0:	09 f4       	brne	.+2      	; 0x28a4 <vfprintf+0x3a>
    28a2:	ba c1       	rjmp	.+884    	; 0x2c18 <vfprintf+0x3ae>
    28a4:	85 32       	cpi	r24, 0x25	; 37
    28a6:	39 f4       	brne	.+14     	; 0x28b6 <vfprintf+0x4c>
    28a8:	93 fd       	sbrc	r25, 3
    28aa:	85 91       	lpm	r24, Z+
    28ac:	93 ff       	sbrs	r25, 3
    28ae:	81 91       	ld	r24, Z+
    28b0:	7f 01       	movw	r14, r30
    28b2:	85 32       	cpi	r24, 0x25	; 37
    28b4:	29 f4       	brne	.+10     	; 0x28c0 <vfprintf+0x56>
    28b6:	b6 01       	movw	r22, r12
    28b8:	90 e0       	ldi	r25, 0x00	; 0
    28ba:	0e 94 2c 16 	call	0x2c58	; 0x2c58 <fputc>
    28be:	e7 cf       	rjmp	.-50     	; 0x288e <vfprintf+0x24>
    28c0:	91 2c       	mov	r9, r1
    28c2:	21 2c       	mov	r2, r1
    28c4:	31 2c       	mov	r3, r1
    28c6:	ff e1       	ldi	r31, 0x1F	; 31
    28c8:	f3 15       	cp	r31, r3
    28ca:	d8 f0       	brcs	.+54     	; 0x2902 <vfprintf+0x98>
    28cc:	8b 32       	cpi	r24, 0x2B	; 43
    28ce:	79 f0       	breq	.+30     	; 0x28ee <vfprintf+0x84>
    28d0:	38 f4       	brcc	.+14     	; 0x28e0 <vfprintf+0x76>
    28d2:	80 32       	cpi	r24, 0x20	; 32
    28d4:	79 f0       	breq	.+30     	; 0x28f4 <vfprintf+0x8a>
    28d6:	83 32       	cpi	r24, 0x23	; 35
    28d8:	a1 f4       	brne	.+40     	; 0x2902 <vfprintf+0x98>
    28da:	23 2d       	mov	r18, r3
    28dc:	20 61       	ori	r18, 0x10	; 16
    28de:	1d c0       	rjmp	.+58     	; 0x291a <vfprintf+0xb0>
    28e0:	8d 32       	cpi	r24, 0x2D	; 45
    28e2:	61 f0       	breq	.+24     	; 0x28fc <vfprintf+0x92>
    28e4:	80 33       	cpi	r24, 0x30	; 48
    28e6:	69 f4       	brne	.+26     	; 0x2902 <vfprintf+0x98>
    28e8:	23 2d       	mov	r18, r3
    28ea:	21 60       	ori	r18, 0x01	; 1
    28ec:	16 c0       	rjmp	.+44     	; 0x291a <vfprintf+0xb0>
    28ee:	83 2d       	mov	r24, r3
    28f0:	82 60       	ori	r24, 0x02	; 2
    28f2:	38 2e       	mov	r3, r24
    28f4:	e3 2d       	mov	r30, r3
    28f6:	e4 60       	ori	r30, 0x04	; 4
    28f8:	3e 2e       	mov	r3, r30
    28fa:	2a c0       	rjmp	.+84     	; 0x2950 <vfprintf+0xe6>
    28fc:	f3 2d       	mov	r31, r3
    28fe:	f8 60       	ori	r31, 0x08	; 8
    2900:	1d c0       	rjmp	.+58     	; 0x293c <vfprintf+0xd2>
    2902:	37 fc       	sbrc	r3, 7
    2904:	2d c0       	rjmp	.+90     	; 0x2960 <vfprintf+0xf6>
    2906:	20 ed       	ldi	r18, 0xD0	; 208
    2908:	28 0f       	add	r18, r24
    290a:	2a 30       	cpi	r18, 0x0A	; 10
    290c:	40 f0       	brcs	.+16     	; 0x291e <vfprintf+0xb4>
    290e:	8e 32       	cpi	r24, 0x2E	; 46
    2910:	b9 f4       	brne	.+46     	; 0x2940 <vfprintf+0xd6>
    2912:	36 fc       	sbrc	r3, 6
    2914:	81 c1       	rjmp	.+770    	; 0x2c18 <vfprintf+0x3ae>
    2916:	23 2d       	mov	r18, r3
    2918:	20 64       	ori	r18, 0x40	; 64
    291a:	32 2e       	mov	r3, r18
    291c:	19 c0       	rjmp	.+50     	; 0x2950 <vfprintf+0xe6>
    291e:	36 fe       	sbrs	r3, 6
    2920:	06 c0       	rjmp	.+12     	; 0x292e <vfprintf+0xc4>
    2922:	8a e0       	ldi	r24, 0x0A	; 10
    2924:	98 9e       	mul	r9, r24
    2926:	20 0d       	add	r18, r0
    2928:	11 24       	eor	r1, r1
    292a:	92 2e       	mov	r9, r18
    292c:	11 c0       	rjmp	.+34     	; 0x2950 <vfprintf+0xe6>
    292e:	ea e0       	ldi	r30, 0x0A	; 10
    2930:	2e 9e       	mul	r2, r30
    2932:	20 0d       	add	r18, r0
    2934:	11 24       	eor	r1, r1
    2936:	22 2e       	mov	r2, r18
    2938:	f3 2d       	mov	r31, r3
    293a:	f0 62       	ori	r31, 0x20	; 32
    293c:	3f 2e       	mov	r3, r31
    293e:	08 c0       	rjmp	.+16     	; 0x2950 <vfprintf+0xe6>
    2940:	8c 36       	cpi	r24, 0x6C	; 108
    2942:	21 f4       	brne	.+8      	; 0x294c <vfprintf+0xe2>
    2944:	83 2d       	mov	r24, r3
    2946:	80 68       	ori	r24, 0x80	; 128
    2948:	38 2e       	mov	r3, r24
    294a:	02 c0       	rjmp	.+4      	; 0x2950 <vfprintf+0xe6>
    294c:	88 36       	cpi	r24, 0x68	; 104
    294e:	41 f4       	brne	.+16     	; 0x2960 <vfprintf+0xf6>
    2950:	f7 01       	movw	r30, r14
    2952:	93 fd       	sbrc	r25, 3
    2954:	85 91       	lpm	r24, Z+
    2956:	93 ff       	sbrs	r25, 3
    2958:	81 91       	ld	r24, Z+
    295a:	7f 01       	movw	r14, r30
    295c:	81 11       	cpse	r24, r1
    295e:	b3 cf       	rjmp	.-154    	; 0x28c6 <vfprintf+0x5c>
    2960:	98 2f       	mov	r25, r24
    2962:	9f 7d       	andi	r25, 0xDF	; 223
    2964:	95 54       	subi	r25, 0x45	; 69
    2966:	93 30       	cpi	r25, 0x03	; 3
    2968:	28 f4       	brcc	.+10     	; 0x2974 <vfprintf+0x10a>
    296a:	0c 5f       	subi	r16, 0xFC	; 252
    296c:	1f 4f       	sbci	r17, 0xFF	; 255
    296e:	9f e3       	ldi	r25, 0x3F	; 63
    2970:	99 83       	std	Y+1, r25	; 0x01
    2972:	0d c0       	rjmp	.+26     	; 0x298e <vfprintf+0x124>
    2974:	83 36       	cpi	r24, 0x63	; 99
    2976:	31 f0       	breq	.+12     	; 0x2984 <vfprintf+0x11a>
    2978:	83 37       	cpi	r24, 0x73	; 115
    297a:	71 f0       	breq	.+28     	; 0x2998 <vfprintf+0x12e>
    297c:	83 35       	cpi	r24, 0x53	; 83
    297e:	09 f0       	breq	.+2      	; 0x2982 <vfprintf+0x118>
    2980:	59 c0       	rjmp	.+178    	; 0x2a34 <vfprintf+0x1ca>
    2982:	21 c0       	rjmp	.+66     	; 0x29c6 <vfprintf+0x15c>
    2984:	f8 01       	movw	r30, r16
    2986:	80 81       	ld	r24, Z
    2988:	89 83       	std	Y+1, r24	; 0x01
    298a:	0e 5f       	subi	r16, 0xFE	; 254
    298c:	1f 4f       	sbci	r17, 0xFF	; 255
    298e:	88 24       	eor	r8, r8
    2990:	83 94       	inc	r8
    2992:	91 2c       	mov	r9, r1
    2994:	53 01       	movw	r10, r6
    2996:	13 c0       	rjmp	.+38     	; 0x29be <vfprintf+0x154>
    2998:	28 01       	movw	r4, r16
    299a:	f2 e0       	ldi	r31, 0x02	; 2
    299c:	4f 0e       	add	r4, r31
    299e:	51 1c       	adc	r5, r1
    29a0:	f8 01       	movw	r30, r16
    29a2:	a0 80       	ld	r10, Z
    29a4:	b1 80       	ldd	r11, Z+1	; 0x01
    29a6:	36 fe       	sbrs	r3, 6
    29a8:	03 c0       	rjmp	.+6      	; 0x29b0 <vfprintf+0x146>
    29aa:	69 2d       	mov	r22, r9
    29ac:	70 e0       	ldi	r23, 0x00	; 0
    29ae:	02 c0       	rjmp	.+4      	; 0x29b4 <vfprintf+0x14a>
    29b0:	6f ef       	ldi	r22, 0xFF	; 255
    29b2:	7f ef       	ldi	r23, 0xFF	; 255
    29b4:	c5 01       	movw	r24, r10
    29b6:	0e 94 21 16 	call	0x2c42	; 0x2c42 <strnlen>
    29ba:	4c 01       	movw	r8, r24
    29bc:	82 01       	movw	r16, r4
    29be:	f3 2d       	mov	r31, r3
    29c0:	ff 77       	andi	r31, 0x7F	; 127
    29c2:	3f 2e       	mov	r3, r31
    29c4:	16 c0       	rjmp	.+44     	; 0x29f2 <vfprintf+0x188>
    29c6:	28 01       	movw	r4, r16
    29c8:	22 e0       	ldi	r18, 0x02	; 2
    29ca:	42 0e       	add	r4, r18
    29cc:	51 1c       	adc	r5, r1
    29ce:	f8 01       	movw	r30, r16
    29d0:	a0 80       	ld	r10, Z
    29d2:	b1 80       	ldd	r11, Z+1	; 0x01
    29d4:	36 fe       	sbrs	r3, 6
    29d6:	03 c0       	rjmp	.+6      	; 0x29de <vfprintf+0x174>
    29d8:	69 2d       	mov	r22, r9
    29da:	70 e0       	ldi	r23, 0x00	; 0
    29dc:	02 c0       	rjmp	.+4      	; 0x29e2 <vfprintf+0x178>
    29de:	6f ef       	ldi	r22, 0xFF	; 255
    29e0:	7f ef       	ldi	r23, 0xFF	; 255
    29e2:	c5 01       	movw	r24, r10
    29e4:	0e 94 16 16 	call	0x2c2c	; 0x2c2c <strnlen_P>
    29e8:	4c 01       	movw	r8, r24
    29ea:	f3 2d       	mov	r31, r3
    29ec:	f0 68       	ori	r31, 0x80	; 128
    29ee:	3f 2e       	mov	r3, r31
    29f0:	82 01       	movw	r16, r4
    29f2:	33 fc       	sbrc	r3, 3
    29f4:	1b c0       	rjmp	.+54     	; 0x2a2c <vfprintf+0x1c2>
    29f6:	82 2d       	mov	r24, r2
    29f8:	90 e0       	ldi	r25, 0x00	; 0
    29fa:	88 16       	cp	r8, r24
    29fc:	99 06       	cpc	r9, r25
    29fe:	b0 f4       	brcc	.+44     	; 0x2a2c <vfprintf+0x1c2>
    2a00:	b6 01       	movw	r22, r12
    2a02:	80 e2       	ldi	r24, 0x20	; 32
    2a04:	90 e0       	ldi	r25, 0x00	; 0
    2a06:	0e 94 2c 16 	call	0x2c58	; 0x2c58 <fputc>
    2a0a:	2a 94       	dec	r2
    2a0c:	f4 cf       	rjmp	.-24     	; 0x29f6 <vfprintf+0x18c>
    2a0e:	f5 01       	movw	r30, r10
    2a10:	37 fc       	sbrc	r3, 7
    2a12:	85 91       	lpm	r24, Z+
    2a14:	37 fe       	sbrs	r3, 7
    2a16:	81 91       	ld	r24, Z+
    2a18:	5f 01       	movw	r10, r30
    2a1a:	b6 01       	movw	r22, r12
    2a1c:	90 e0       	ldi	r25, 0x00	; 0
    2a1e:	0e 94 2c 16 	call	0x2c58	; 0x2c58 <fputc>
    2a22:	21 10       	cpse	r2, r1
    2a24:	2a 94       	dec	r2
    2a26:	21 e0       	ldi	r18, 0x01	; 1
    2a28:	82 1a       	sub	r8, r18
    2a2a:	91 08       	sbc	r9, r1
    2a2c:	81 14       	cp	r8, r1
    2a2e:	91 04       	cpc	r9, r1
    2a30:	71 f7       	brne	.-36     	; 0x2a0e <vfprintf+0x1a4>
    2a32:	e8 c0       	rjmp	.+464    	; 0x2c04 <vfprintf+0x39a>
    2a34:	84 36       	cpi	r24, 0x64	; 100
    2a36:	11 f0       	breq	.+4      	; 0x2a3c <vfprintf+0x1d2>
    2a38:	89 36       	cpi	r24, 0x69	; 105
    2a3a:	41 f5       	brne	.+80     	; 0x2a8c <vfprintf+0x222>
    2a3c:	f8 01       	movw	r30, r16
    2a3e:	37 fe       	sbrs	r3, 7
    2a40:	07 c0       	rjmp	.+14     	; 0x2a50 <vfprintf+0x1e6>
    2a42:	60 81       	ld	r22, Z
    2a44:	71 81       	ldd	r23, Z+1	; 0x01
    2a46:	82 81       	ldd	r24, Z+2	; 0x02
    2a48:	93 81       	ldd	r25, Z+3	; 0x03
    2a4a:	0c 5f       	subi	r16, 0xFC	; 252
    2a4c:	1f 4f       	sbci	r17, 0xFF	; 255
    2a4e:	08 c0       	rjmp	.+16     	; 0x2a60 <vfprintf+0x1f6>
    2a50:	60 81       	ld	r22, Z
    2a52:	71 81       	ldd	r23, Z+1	; 0x01
    2a54:	07 2e       	mov	r0, r23
    2a56:	00 0c       	add	r0, r0
    2a58:	88 0b       	sbc	r24, r24
    2a5a:	99 0b       	sbc	r25, r25
    2a5c:	0e 5f       	subi	r16, 0xFE	; 254
    2a5e:	1f 4f       	sbci	r17, 0xFF	; 255
    2a60:	f3 2d       	mov	r31, r3
    2a62:	ff 76       	andi	r31, 0x6F	; 111
    2a64:	3f 2e       	mov	r3, r31
    2a66:	97 ff       	sbrs	r25, 7
    2a68:	09 c0       	rjmp	.+18     	; 0x2a7c <vfprintf+0x212>
    2a6a:	90 95       	com	r25
    2a6c:	80 95       	com	r24
    2a6e:	70 95       	com	r23
    2a70:	61 95       	neg	r22
    2a72:	7f 4f       	sbci	r23, 0xFF	; 255
    2a74:	8f 4f       	sbci	r24, 0xFF	; 255
    2a76:	9f 4f       	sbci	r25, 0xFF	; 255
    2a78:	f0 68       	ori	r31, 0x80	; 128
    2a7a:	3f 2e       	mov	r3, r31
    2a7c:	2a e0       	ldi	r18, 0x0A	; 10
    2a7e:	30 e0       	ldi	r19, 0x00	; 0
    2a80:	a3 01       	movw	r20, r6
    2a82:	0e 94 68 16 	call	0x2cd0	; 0x2cd0 <__ultoa_invert>
    2a86:	88 2e       	mov	r8, r24
    2a88:	86 18       	sub	r8, r6
    2a8a:	45 c0       	rjmp	.+138    	; 0x2b16 <vfprintf+0x2ac>
    2a8c:	85 37       	cpi	r24, 0x75	; 117
    2a8e:	31 f4       	brne	.+12     	; 0x2a9c <vfprintf+0x232>
    2a90:	23 2d       	mov	r18, r3
    2a92:	2f 7e       	andi	r18, 0xEF	; 239
    2a94:	b2 2e       	mov	r11, r18
    2a96:	2a e0       	ldi	r18, 0x0A	; 10
    2a98:	30 e0       	ldi	r19, 0x00	; 0
    2a9a:	25 c0       	rjmp	.+74     	; 0x2ae6 <vfprintf+0x27c>
    2a9c:	93 2d       	mov	r25, r3
    2a9e:	99 7f       	andi	r25, 0xF9	; 249
    2aa0:	b9 2e       	mov	r11, r25
    2aa2:	8f 36       	cpi	r24, 0x6F	; 111
    2aa4:	c1 f0       	breq	.+48     	; 0x2ad6 <vfprintf+0x26c>
    2aa6:	18 f4       	brcc	.+6      	; 0x2aae <vfprintf+0x244>
    2aa8:	88 35       	cpi	r24, 0x58	; 88
    2aaa:	79 f0       	breq	.+30     	; 0x2aca <vfprintf+0x260>
    2aac:	b5 c0       	rjmp	.+362    	; 0x2c18 <vfprintf+0x3ae>
    2aae:	80 37       	cpi	r24, 0x70	; 112
    2ab0:	19 f0       	breq	.+6      	; 0x2ab8 <vfprintf+0x24e>
    2ab2:	88 37       	cpi	r24, 0x78	; 120
    2ab4:	21 f0       	breq	.+8      	; 0x2abe <vfprintf+0x254>
    2ab6:	b0 c0       	rjmp	.+352    	; 0x2c18 <vfprintf+0x3ae>
    2ab8:	e9 2f       	mov	r30, r25
    2aba:	e0 61       	ori	r30, 0x10	; 16
    2abc:	be 2e       	mov	r11, r30
    2abe:	b4 fe       	sbrs	r11, 4
    2ac0:	0d c0       	rjmp	.+26     	; 0x2adc <vfprintf+0x272>
    2ac2:	fb 2d       	mov	r31, r11
    2ac4:	f4 60       	ori	r31, 0x04	; 4
    2ac6:	bf 2e       	mov	r11, r31
    2ac8:	09 c0       	rjmp	.+18     	; 0x2adc <vfprintf+0x272>
    2aca:	34 fe       	sbrs	r3, 4
    2acc:	0a c0       	rjmp	.+20     	; 0x2ae2 <vfprintf+0x278>
    2ace:	29 2f       	mov	r18, r25
    2ad0:	26 60       	ori	r18, 0x06	; 6
    2ad2:	b2 2e       	mov	r11, r18
    2ad4:	06 c0       	rjmp	.+12     	; 0x2ae2 <vfprintf+0x278>
    2ad6:	28 e0       	ldi	r18, 0x08	; 8
    2ad8:	30 e0       	ldi	r19, 0x00	; 0
    2ada:	05 c0       	rjmp	.+10     	; 0x2ae6 <vfprintf+0x27c>
    2adc:	20 e1       	ldi	r18, 0x10	; 16
    2ade:	30 e0       	ldi	r19, 0x00	; 0
    2ae0:	02 c0       	rjmp	.+4      	; 0x2ae6 <vfprintf+0x27c>
    2ae2:	20 e1       	ldi	r18, 0x10	; 16
    2ae4:	32 e0       	ldi	r19, 0x02	; 2
    2ae6:	f8 01       	movw	r30, r16
    2ae8:	b7 fe       	sbrs	r11, 7
    2aea:	07 c0       	rjmp	.+14     	; 0x2afa <vfprintf+0x290>
    2aec:	60 81       	ld	r22, Z
    2aee:	71 81       	ldd	r23, Z+1	; 0x01
    2af0:	82 81       	ldd	r24, Z+2	; 0x02
    2af2:	93 81       	ldd	r25, Z+3	; 0x03
    2af4:	0c 5f       	subi	r16, 0xFC	; 252
    2af6:	1f 4f       	sbci	r17, 0xFF	; 255
    2af8:	06 c0       	rjmp	.+12     	; 0x2b06 <vfprintf+0x29c>
    2afa:	60 81       	ld	r22, Z
    2afc:	71 81       	ldd	r23, Z+1	; 0x01
    2afe:	80 e0       	ldi	r24, 0x00	; 0
    2b00:	90 e0       	ldi	r25, 0x00	; 0
    2b02:	0e 5f       	subi	r16, 0xFE	; 254
    2b04:	1f 4f       	sbci	r17, 0xFF	; 255
    2b06:	a3 01       	movw	r20, r6
    2b08:	0e 94 68 16 	call	0x2cd0	; 0x2cd0 <__ultoa_invert>
    2b0c:	88 2e       	mov	r8, r24
    2b0e:	86 18       	sub	r8, r6
    2b10:	fb 2d       	mov	r31, r11
    2b12:	ff 77       	andi	r31, 0x7F	; 127
    2b14:	3f 2e       	mov	r3, r31
    2b16:	36 fe       	sbrs	r3, 6
    2b18:	0d c0       	rjmp	.+26     	; 0x2b34 <vfprintf+0x2ca>
    2b1a:	23 2d       	mov	r18, r3
    2b1c:	2e 7f       	andi	r18, 0xFE	; 254
    2b1e:	a2 2e       	mov	r10, r18
    2b20:	89 14       	cp	r8, r9
    2b22:	58 f4       	brcc	.+22     	; 0x2b3a <vfprintf+0x2d0>
    2b24:	34 fe       	sbrs	r3, 4
    2b26:	0b c0       	rjmp	.+22     	; 0x2b3e <vfprintf+0x2d4>
    2b28:	32 fc       	sbrc	r3, 2
    2b2a:	09 c0       	rjmp	.+18     	; 0x2b3e <vfprintf+0x2d4>
    2b2c:	83 2d       	mov	r24, r3
    2b2e:	8e 7e       	andi	r24, 0xEE	; 238
    2b30:	a8 2e       	mov	r10, r24
    2b32:	05 c0       	rjmp	.+10     	; 0x2b3e <vfprintf+0x2d4>
    2b34:	b8 2c       	mov	r11, r8
    2b36:	a3 2c       	mov	r10, r3
    2b38:	03 c0       	rjmp	.+6      	; 0x2b40 <vfprintf+0x2d6>
    2b3a:	b8 2c       	mov	r11, r8
    2b3c:	01 c0       	rjmp	.+2      	; 0x2b40 <vfprintf+0x2d6>
    2b3e:	b9 2c       	mov	r11, r9
    2b40:	a4 fe       	sbrs	r10, 4
    2b42:	0f c0       	rjmp	.+30     	; 0x2b62 <vfprintf+0x2f8>
    2b44:	fe 01       	movw	r30, r28
    2b46:	e8 0d       	add	r30, r8
    2b48:	f1 1d       	adc	r31, r1
    2b4a:	80 81       	ld	r24, Z
    2b4c:	80 33       	cpi	r24, 0x30	; 48
    2b4e:	21 f4       	brne	.+8      	; 0x2b58 <vfprintf+0x2ee>
    2b50:	9a 2d       	mov	r25, r10
    2b52:	99 7e       	andi	r25, 0xE9	; 233
    2b54:	a9 2e       	mov	r10, r25
    2b56:	09 c0       	rjmp	.+18     	; 0x2b6a <vfprintf+0x300>
    2b58:	a2 fe       	sbrs	r10, 2
    2b5a:	06 c0       	rjmp	.+12     	; 0x2b68 <vfprintf+0x2fe>
    2b5c:	b3 94       	inc	r11
    2b5e:	b3 94       	inc	r11
    2b60:	04 c0       	rjmp	.+8      	; 0x2b6a <vfprintf+0x300>
    2b62:	8a 2d       	mov	r24, r10
    2b64:	86 78       	andi	r24, 0x86	; 134
    2b66:	09 f0       	breq	.+2      	; 0x2b6a <vfprintf+0x300>
    2b68:	b3 94       	inc	r11
    2b6a:	a3 fc       	sbrc	r10, 3
    2b6c:	11 c0       	rjmp	.+34     	; 0x2b90 <vfprintf+0x326>
    2b6e:	a0 fe       	sbrs	r10, 0
    2b70:	06 c0       	rjmp	.+12     	; 0x2b7e <vfprintf+0x314>
    2b72:	b2 14       	cp	r11, r2
    2b74:	88 f4       	brcc	.+34     	; 0x2b98 <vfprintf+0x32e>
    2b76:	28 0c       	add	r2, r8
    2b78:	92 2c       	mov	r9, r2
    2b7a:	9b 18       	sub	r9, r11
    2b7c:	0e c0       	rjmp	.+28     	; 0x2b9a <vfprintf+0x330>
    2b7e:	b2 14       	cp	r11, r2
    2b80:	60 f4       	brcc	.+24     	; 0x2b9a <vfprintf+0x330>
    2b82:	b6 01       	movw	r22, r12
    2b84:	80 e2       	ldi	r24, 0x20	; 32
    2b86:	90 e0       	ldi	r25, 0x00	; 0
    2b88:	0e 94 2c 16 	call	0x2c58	; 0x2c58 <fputc>
    2b8c:	b3 94       	inc	r11
    2b8e:	f7 cf       	rjmp	.-18     	; 0x2b7e <vfprintf+0x314>
    2b90:	b2 14       	cp	r11, r2
    2b92:	18 f4       	brcc	.+6      	; 0x2b9a <vfprintf+0x330>
    2b94:	2b 18       	sub	r2, r11
    2b96:	02 c0       	rjmp	.+4      	; 0x2b9c <vfprintf+0x332>
    2b98:	98 2c       	mov	r9, r8
    2b9a:	21 2c       	mov	r2, r1
    2b9c:	a4 fe       	sbrs	r10, 4
    2b9e:	10 c0       	rjmp	.+32     	; 0x2bc0 <vfprintf+0x356>
    2ba0:	b6 01       	movw	r22, r12
    2ba2:	80 e3       	ldi	r24, 0x30	; 48
    2ba4:	90 e0       	ldi	r25, 0x00	; 0
    2ba6:	0e 94 2c 16 	call	0x2c58	; 0x2c58 <fputc>
    2baa:	a2 fe       	sbrs	r10, 2
    2bac:	17 c0       	rjmp	.+46     	; 0x2bdc <vfprintf+0x372>
    2bae:	a1 fc       	sbrc	r10, 1
    2bb0:	03 c0       	rjmp	.+6      	; 0x2bb8 <vfprintf+0x34e>
    2bb2:	88 e7       	ldi	r24, 0x78	; 120
    2bb4:	90 e0       	ldi	r25, 0x00	; 0
    2bb6:	02 c0       	rjmp	.+4      	; 0x2bbc <vfprintf+0x352>
    2bb8:	88 e5       	ldi	r24, 0x58	; 88
    2bba:	90 e0       	ldi	r25, 0x00	; 0
    2bbc:	b6 01       	movw	r22, r12
    2bbe:	0c c0       	rjmp	.+24     	; 0x2bd8 <vfprintf+0x36e>
    2bc0:	8a 2d       	mov	r24, r10
    2bc2:	86 78       	andi	r24, 0x86	; 134
    2bc4:	59 f0       	breq	.+22     	; 0x2bdc <vfprintf+0x372>
    2bc6:	a1 fe       	sbrs	r10, 1
    2bc8:	02 c0       	rjmp	.+4      	; 0x2bce <vfprintf+0x364>
    2bca:	8b e2       	ldi	r24, 0x2B	; 43
    2bcc:	01 c0       	rjmp	.+2      	; 0x2bd0 <vfprintf+0x366>
    2bce:	80 e2       	ldi	r24, 0x20	; 32
    2bd0:	a7 fc       	sbrc	r10, 7
    2bd2:	8d e2       	ldi	r24, 0x2D	; 45
    2bd4:	b6 01       	movw	r22, r12
    2bd6:	90 e0       	ldi	r25, 0x00	; 0
    2bd8:	0e 94 2c 16 	call	0x2c58	; 0x2c58 <fputc>
    2bdc:	89 14       	cp	r8, r9
    2bde:	38 f4       	brcc	.+14     	; 0x2bee <vfprintf+0x384>
    2be0:	b6 01       	movw	r22, r12
    2be2:	80 e3       	ldi	r24, 0x30	; 48
    2be4:	90 e0       	ldi	r25, 0x00	; 0
    2be6:	0e 94 2c 16 	call	0x2c58	; 0x2c58 <fputc>
    2bea:	9a 94       	dec	r9
    2bec:	f7 cf       	rjmp	.-18     	; 0x2bdc <vfprintf+0x372>
    2bee:	8a 94       	dec	r8
    2bf0:	f3 01       	movw	r30, r6
    2bf2:	e8 0d       	add	r30, r8
    2bf4:	f1 1d       	adc	r31, r1
    2bf6:	80 81       	ld	r24, Z
    2bf8:	b6 01       	movw	r22, r12
    2bfa:	90 e0       	ldi	r25, 0x00	; 0
    2bfc:	0e 94 2c 16 	call	0x2c58	; 0x2c58 <fputc>
    2c00:	81 10       	cpse	r8, r1
    2c02:	f5 cf       	rjmp	.-22     	; 0x2bee <vfprintf+0x384>
    2c04:	22 20       	and	r2, r2
    2c06:	09 f4       	brne	.+2      	; 0x2c0a <vfprintf+0x3a0>
    2c08:	42 ce       	rjmp	.-892    	; 0x288e <vfprintf+0x24>
    2c0a:	b6 01       	movw	r22, r12
    2c0c:	80 e2       	ldi	r24, 0x20	; 32
    2c0e:	90 e0       	ldi	r25, 0x00	; 0
    2c10:	0e 94 2c 16 	call	0x2c58	; 0x2c58 <fputc>
    2c14:	2a 94       	dec	r2
    2c16:	f6 cf       	rjmp	.-20     	; 0x2c04 <vfprintf+0x39a>
    2c18:	f6 01       	movw	r30, r12
    2c1a:	86 81       	ldd	r24, Z+6	; 0x06
    2c1c:	97 81       	ldd	r25, Z+7	; 0x07
    2c1e:	02 c0       	rjmp	.+4      	; 0x2c24 <vfprintf+0x3ba>
    2c20:	8f ef       	ldi	r24, 0xFF	; 255
    2c22:	9f ef       	ldi	r25, 0xFF	; 255
    2c24:	2b 96       	adiw	r28, 0x0b	; 11
    2c26:	e2 e1       	ldi	r30, 0x12	; 18
    2c28:	0c 94 e2 16 	jmp	0x2dc4	; 0x2dc4 <__epilogue_restores__>

00002c2c <strnlen_P>:
    2c2c:	fc 01       	movw	r30, r24
    2c2e:	05 90       	lpm	r0, Z+
    2c30:	61 50       	subi	r22, 0x01	; 1
    2c32:	70 40       	sbci	r23, 0x00	; 0
    2c34:	01 10       	cpse	r0, r1
    2c36:	d8 f7       	brcc	.-10     	; 0x2c2e <strnlen_P+0x2>
    2c38:	80 95       	com	r24
    2c3a:	90 95       	com	r25
    2c3c:	8e 0f       	add	r24, r30
    2c3e:	9f 1f       	adc	r25, r31
    2c40:	08 95       	ret

00002c42 <strnlen>:
    2c42:	fc 01       	movw	r30, r24
    2c44:	61 50       	subi	r22, 0x01	; 1
    2c46:	70 40       	sbci	r23, 0x00	; 0
    2c48:	01 90       	ld	r0, Z+
    2c4a:	01 10       	cpse	r0, r1
    2c4c:	d8 f7       	brcc	.-10     	; 0x2c44 <strnlen+0x2>
    2c4e:	80 95       	com	r24
    2c50:	90 95       	com	r25
    2c52:	8e 0f       	add	r24, r30
    2c54:	9f 1f       	adc	r25, r31
    2c56:	08 95       	ret

00002c58 <fputc>:
    2c58:	0f 93       	push	r16
    2c5a:	1f 93       	push	r17
    2c5c:	cf 93       	push	r28
    2c5e:	df 93       	push	r29
    2c60:	fb 01       	movw	r30, r22
    2c62:	23 81       	ldd	r18, Z+3	; 0x03
    2c64:	21 fd       	sbrc	r18, 1
    2c66:	03 c0       	rjmp	.+6      	; 0x2c6e <fputc+0x16>
    2c68:	8f ef       	ldi	r24, 0xFF	; 255
    2c6a:	9f ef       	ldi	r25, 0xFF	; 255
    2c6c:	2c c0       	rjmp	.+88     	; 0x2cc6 <fputc+0x6e>
    2c6e:	22 ff       	sbrs	r18, 2
    2c70:	16 c0       	rjmp	.+44     	; 0x2c9e <fputc+0x46>
    2c72:	46 81       	ldd	r20, Z+6	; 0x06
    2c74:	57 81       	ldd	r21, Z+7	; 0x07
    2c76:	24 81       	ldd	r18, Z+4	; 0x04
    2c78:	35 81       	ldd	r19, Z+5	; 0x05
    2c7a:	42 17       	cp	r20, r18
    2c7c:	53 07       	cpc	r21, r19
    2c7e:	44 f4       	brge	.+16     	; 0x2c90 <fputc+0x38>
    2c80:	a0 81       	ld	r26, Z
    2c82:	b1 81       	ldd	r27, Z+1	; 0x01
    2c84:	9d 01       	movw	r18, r26
    2c86:	2f 5f       	subi	r18, 0xFF	; 255
    2c88:	3f 4f       	sbci	r19, 0xFF	; 255
    2c8a:	31 83       	std	Z+1, r19	; 0x01
    2c8c:	20 83       	st	Z, r18
    2c8e:	8c 93       	st	X, r24
    2c90:	26 81       	ldd	r18, Z+6	; 0x06
    2c92:	37 81       	ldd	r19, Z+7	; 0x07
    2c94:	2f 5f       	subi	r18, 0xFF	; 255
    2c96:	3f 4f       	sbci	r19, 0xFF	; 255
    2c98:	37 83       	std	Z+7, r19	; 0x07
    2c9a:	26 83       	std	Z+6, r18	; 0x06
    2c9c:	14 c0       	rjmp	.+40     	; 0x2cc6 <fputc+0x6e>
    2c9e:	8b 01       	movw	r16, r22
    2ca0:	ec 01       	movw	r28, r24
    2ca2:	fb 01       	movw	r30, r22
    2ca4:	00 84       	ldd	r0, Z+8	; 0x08
    2ca6:	f1 85       	ldd	r31, Z+9	; 0x09
    2ca8:	e0 2d       	mov	r30, r0
    2caa:	09 95       	icall
    2cac:	89 2b       	or	r24, r25
    2cae:	e1 f6       	brne	.-72     	; 0x2c68 <fputc+0x10>
    2cb0:	d8 01       	movw	r26, r16
    2cb2:	16 96       	adiw	r26, 0x06	; 6
    2cb4:	8d 91       	ld	r24, X+
    2cb6:	9c 91       	ld	r25, X
    2cb8:	17 97       	sbiw	r26, 0x07	; 7
    2cba:	01 96       	adiw	r24, 0x01	; 1
    2cbc:	17 96       	adiw	r26, 0x07	; 7
    2cbe:	9c 93       	st	X, r25
    2cc0:	8e 93       	st	-X, r24
    2cc2:	16 97       	sbiw	r26, 0x06	; 6
    2cc4:	ce 01       	movw	r24, r28
    2cc6:	df 91       	pop	r29
    2cc8:	cf 91       	pop	r28
    2cca:	1f 91       	pop	r17
    2ccc:	0f 91       	pop	r16
    2cce:	08 95       	ret

00002cd0 <__ultoa_invert>:
    2cd0:	fa 01       	movw	r30, r20
    2cd2:	aa 27       	eor	r26, r26
    2cd4:	28 30       	cpi	r18, 0x08	; 8
    2cd6:	51 f1       	breq	.+84     	; 0x2d2c <__ultoa_invert+0x5c>
    2cd8:	20 31       	cpi	r18, 0x10	; 16
    2cda:	81 f1       	breq	.+96     	; 0x2d3c <__ultoa_invert+0x6c>
    2cdc:	e8 94       	clt
    2cde:	6f 93       	push	r22
    2ce0:	6e 7f       	andi	r22, 0xFE	; 254
    2ce2:	6e 5f       	subi	r22, 0xFE	; 254
    2ce4:	7f 4f       	sbci	r23, 0xFF	; 255
    2ce6:	8f 4f       	sbci	r24, 0xFF	; 255
    2ce8:	9f 4f       	sbci	r25, 0xFF	; 255
    2cea:	af 4f       	sbci	r26, 0xFF	; 255
    2cec:	b1 e0       	ldi	r27, 0x01	; 1
    2cee:	3e d0       	rcall	.+124    	; 0x2d6c <__ultoa_invert+0x9c>
    2cf0:	b4 e0       	ldi	r27, 0x04	; 4
    2cf2:	3c d0       	rcall	.+120    	; 0x2d6c <__ultoa_invert+0x9c>
    2cf4:	67 0f       	add	r22, r23
    2cf6:	78 1f       	adc	r23, r24
    2cf8:	89 1f       	adc	r24, r25
    2cfa:	9a 1f       	adc	r25, r26
    2cfc:	a1 1d       	adc	r26, r1
    2cfe:	68 0f       	add	r22, r24
    2d00:	79 1f       	adc	r23, r25
    2d02:	8a 1f       	adc	r24, r26
    2d04:	91 1d       	adc	r25, r1
    2d06:	a1 1d       	adc	r26, r1
    2d08:	6a 0f       	add	r22, r26
    2d0a:	71 1d       	adc	r23, r1
    2d0c:	81 1d       	adc	r24, r1
    2d0e:	91 1d       	adc	r25, r1
    2d10:	a1 1d       	adc	r26, r1
    2d12:	20 d0       	rcall	.+64     	; 0x2d54 <__ultoa_invert+0x84>
    2d14:	09 f4       	brne	.+2      	; 0x2d18 <__ultoa_invert+0x48>
    2d16:	68 94       	set
    2d18:	3f 91       	pop	r19
    2d1a:	2a e0       	ldi	r18, 0x0A	; 10
    2d1c:	26 9f       	mul	r18, r22
    2d1e:	11 24       	eor	r1, r1
    2d20:	30 19       	sub	r19, r0
    2d22:	30 5d       	subi	r19, 0xD0	; 208
    2d24:	31 93       	st	Z+, r19
    2d26:	de f6       	brtc	.-74     	; 0x2cde <__ultoa_invert+0xe>
    2d28:	cf 01       	movw	r24, r30
    2d2a:	08 95       	ret
    2d2c:	46 2f       	mov	r20, r22
    2d2e:	47 70       	andi	r20, 0x07	; 7
    2d30:	40 5d       	subi	r20, 0xD0	; 208
    2d32:	41 93       	st	Z+, r20
    2d34:	b3 e0       	ldi	r27, 0x03	; 3
    2d36:	0f d0       	rcall	.+30     	; 0x2d56 <__ultoa_invert+0x86>
    2d38:	c9 f7       	brne	.-14     	; 0x2d2c <__ultoa_invert+0x5c>
    2d3a:	f6 cf       	rjmp	.-20     	; 0x2d28 <__ultoa_invert+0x58>
    2d3c:	46 2f       	mov	r20, r22
    2d3e:	4f 70       	andi	r20, 0x0F	; 15
    2d40:	40 5d       	subi	r20, 0xD0	; 208
    2d42:	4a 33       	cpi	r20, 0x3A	; 58
    2d44:	18 f0       	brcs	.+6      	; 0x2d4c <__ultoa_invert+0x7c>
    2d46:	49 5d       	subi	r20, 0xD9	; 217
    2d48:	31 fd       	sbrc	r19, 1
    2d4a:	40 52       	subi	r20, 0x20	; 32
    2d4c:	41 93       	st	Z+, r20
    2d4e:	02 d0       	rcall	.+4      	; 0x2d54 <__ultoa_invert+0x84>
    2d50:	a9 f7       	brne	.-22     	; 0x2d3c <__ultoa_invert+0x6c>
    2d52:	ea cf       	rjmp	.-44     	; 0x2d28 <__ultoa_invert+0x58>
    2d54:	b4 e0       	ldi	r27, 0x04	; 4
    2d56:	a6 95       	lsr	r26
    2d58:	97 95       	ror	r25
    2d5a:	87 95       	ror	r24
    2d5c:	77 95       	ror	r23
    2d5e:	67 95       	ror	r22
    2d60:	ba 95       	dec	r27
    2d62:	c9 f7       	brne	.-14     	; 0x2d56 <__ultoa_invert+0x86>
    2d64:	00 97       	sbiw	r24, 0x00	; 0
    2d66:	61 05       	cpc	r22, r1
    2d68:	71 05       	cpc	r23, r1
    2d6a:	08 95       	ret
    2d6c:	9b 01       	movw	r18, r22
    2d6e:	ac 01       	movw	r20, r24
    2d70:	0a 2e       	mov	r0, r26
    2d72:	06 94       	lsr	r0
    2d74:	57 95       	ror	r21
    2d76:	47 95       	ror	r20
    2d78:	37 95       	ror	r19
    2d7a:	27 95       	ror	r18
    2d7c:	ba 95       	dec	r27
    2d7e:	c9 f7       	brne	.-14     	; 0x2d72 <__ultoa_invert+0xa2>
    2d80:	62 0f       	add	r22, r18
    2d82:	73 1f       	adc	r23, r19
    2d84:	84 1f       	adc	r24, r20
    2d86:	95 1f       	adc	r25, r21
    2d88:	a0 1d       	adc	r26, r0
    2d8a:	08 95       	ret

00002d8c <__prologue_saves__>:
    2d8c:	2f 92       	push	r2
    2d8e:	3f 92       	push	r3
    2d90:	4f 92       	push	r4
    2d92:	5f 92       	push	r5
    2d94:	6f 92       	push	r6
    2d96:	7f 92       	push	r7
    2d98:	8f 92       	push	r8
    2d9a:	9f 92       	push	r9
    2d9c:	af 92       	push	r10
    2d9e:	bf 92       	push	r11
    2da0:	cf 92       	push	r12
    2da2:	df 92       	push	r13
    2da4:	ef 92       	push	r14
    2da6:	ff 92       	push	r15
    2da8:	0f 93       	push	r16
    2daa:	1f 93       	push	r17
    2dac:	cf 93       	push	r28
    2dae:	df 93       	push	r29
    2db0:	cd b7       	in	r28, 0x3d	; 61
    2db2:	de b7       	in	r29, 0x3e	; 62
    2db4:	ca 1b       	sub	r28, r26
    2db6:	db 0b       	sbc	r29, r27
    2db8:	0f b6       	in	r0, 0x3f	; 63
    2dba:	f8 94       	cli
    2dbc:	de bf       	out	0x3e, r29	; 62
    2dbe:	0f be       	out	0x3f, r0	; 63
    2dc0:	cd bf       	out	0x3d, r28	; 61
    2dc2:	09 94       	ijmp

00002dc4 <__epilogue_restores__>:
    2dc4:	2a 88       	ldd	r2, Y+18	; 0x12
    2dc6:	39 88       	ldd	r3, Y+17	; 0x11
    2dc8:	48 88       	ldd	r4, Y+16	; 0x10
    2dca:	5f 84       	ldd	r5, Y+15	; 0x0f
    2dcc:	6e 84       	ldd	r6, Y+14	; 0x0e
    2dce:	7d 84       	ldd	r7, Y+13	; 0x0d
    2dd0:	8c 84       	ldd	r8, Y+12	; 0x0c
    2dd2:	9b 84       	ldd	r9, Y+11	; 0x0b
    2dd4:	aa 84       	ldd	r10, Y+10	; 0x0a
    2dd6:	b9 84       	ldd	r11, Y+9	; 0x09
    2dd8:	c8 84       	ldd	r12, Y+8	; 0x08
    2dda:	df 80       	ldd	r13, Y+7	; 0x07
    2ddc:	ee 80       	ldd	r14, Y+6	; 0x06
    2dde:	fd 80       	ldd	r15, Y+5	; 0x05
    2de0:	0c 81       	ldd	r16, Y+4	; 0x04
    2de2:	1b 81       	ldd	r17, Y+3	; 0x03
    2de4:	aa 81       	ldd	r26, Y+2	; 0x02
    2de6:	b9 81       	ldd	r27, Y+1	; 0x01
    2de8:	ce 0f       	add	r28, r30
    2dea:	d1 1d       	adc	r29, r1
    2dec:	0f b6       	in	r0, 0x3f	; 63
    2dee:	f8 94       	cli
    2df0:	de bf       	out	0x3e, r29	; 62
    2df2:	0f be       	out	0x3f, r0	; 63
    2df4:	cd bf       	out	0x3d, r28	; 61
    2df6:	ed 01       	movw	r28, r26
    2df8:	08 95       	ret

00002dfa <_exit>:
    2dfa:	f8 94       	cli

00002dfc <__stop_program>:
    2dfc:	ff cf       	rjmp	.-2      	; 0x2dfc <__stop_program>
